c__builtin__
set
p0
((lp1
Vraopanon
p2
aVanarchyreigns
p3
aVmassawyrm
p4
aVbenkeiofthehillpeopl
p5
aVjme413
p6
aVnandorocker
p7
aVhrnmyd
p8
aVphoto
p9
aVisothien
p10
aVthumpingarnt
p11
aVrhystatic
p12
aVnathanpaulyoung
p13
aVtuckednip
p14
aVniteflirtgirl
p15
aVneighborhoodstranger
p16
aVidem22
p17
aVfivestarsoul
p18
aVmmmcandy
p19
aValxbnt
p20
aVhermanobluth
p21
aVstraha21
p22
aVbgoodrbcareful
p23
aVdeathcabforpenguin
p24
aVairmanhand
p25
aVstarfireliz
p26
aVosk213
p27
aVamarkson
p28
aVaggietimber
p29
aVwhosthatguru_v2
p30
aVcarseycritter
p31
aVdsledz
p32
aVjski5711
p33
aVb4tty0n3
p34
aVstillers412
p35
aVsynth3tk
p36
aVflamingcow
p37
aV2phresh
p38
aVsjmoll
p39
aVsartim
p40
aVfugknuckles
p41
aVzstillman
p42
aVangiowhiz1
p43
aVhomeless_wonders
p44
aVadamsstash
p45
aVbigbadjew
p46
aVjenadactyl
p47
aVnicko9y
p48
aVknitchick
p49
aV0mggames
p50
aVlaz42
p51
aVyour_never_alone
p52
aVpizzaman2012
p53
aVdalidala
p54
aVraspberryseltzer
p55
aVflawlessnoob
p56
aVtrollyx3
p57
aVyoasty
p58
aVkingkaimaui
p59
aVscrovak
p60
aVpsm321
p61
aVgloriouspeanut
p62
aVanotherguy2
p63
aVchupanibre25
p64
aVi_like_owls
p65
aVmoomoocowninja
p66
aVforeignporn
p67
aVillgiveyouthekey
p68
aVhand_out
p69
aViheartsunrise04
p70
aVboredaustralian
p71
aVminivansareevil
p72
aVpseudo_prodigal_son
p73
aVchalt0
p74
aVcopred
p75
aVahensen
p76
aVastrogliide
p77
aVthisfreaknguy
p78
aViamseth
p79
aVcodemonkeylikefritos
p80
aVclouds_rach
p81
aVdeyona
p82
aVshort_lurker
p83
aVsalbito
p84
aVodot522
p85
aVpclinger
p86
aVcmdbash
p87
aVjohngalt1337
p88
aVclearmoon247
p89
aVgadianton
p90
aVdonthatemasticate
p91
aVjabberworx
p92
aVsecretsweetheart
p93
aVzandyman
p94
aVdonitsu
p95
aVmfbyrne
p96
aViamaredditer
p97
aVmonkeyhouse
p98
aVbenmk
p99
aVrazzlethemall
p100
aVolivertw1st
p101
aVyunododat
p102
aVthemanateeman
p103
aVcoldheat
p104
aVrainerios
p105
aVkrashenbern
p106
aVaboveyou5280
p107
aVclarle
p108
aVprettyugly1
p109
aVfatmanjogging
p110
aVjengomez
p111
aVkiltedman
p112
aVantibread
p113
aVfogdelune
p114
aVdranai
p115
aVkimi21
p116
aVfuqyocouch
p117
aVibaheir2dathrone
p118
aVmr_jeep
p119
aVjohnfactorial
p120
aVmexta
p121
aVcgkush
p122
aVmy2penniesworth
p123
aVkigood
p124
aVlaskoriff
p125
aVyommey
p126
aVbceltics933
p127
aVmycatownsme
p128
aVryanxm
p129
aVwomg
p130
aVrealmkiller
p131
aVabrham_smith
p132
aVimperialviolet
p133
aVjimswife9
p134
aVwchill
p135
aVrhynovirus
p136
aVthe_jury_is_out
p137
aVhalftheman1
p138
aVpastafariantwit
p139
aVmazdarx7guy
p140
aViamtheharpy
p141
aVsueolsen
p142
aVredditg0nad
p143
aVthetruedarkone
p144
aVm2nu
p145
aVkramapple
p146
aVomatrisha
p147
aVroxieh
p148
aVelectronicsnailmail
p149
aVodd-one-out
p150
aVduckydoom
p151
aVpizzamom
p152
aVjayce513
p153
aVglinda_da_good_witch
p154
aVhogfathom
p155
aVdezmodez
p156
aVjeremybeadle
p157
aVYarrg
p158
aVgoodguygregirl
p159
aVprovidencepariah
p160
aVbeatnikbillygoat
p161
aVMsFit
p162
aVwhubbard
p163
aVebitda1
p164
aVjesses_girl
p165
aVch31415
p166
aVmstina
p167
aVtwister17
p168
aVtrust_me_im_a_panda
p169
aVfastizio6176
p170
aVninjaliwa
p171
aVpaisley8827
p172
aVithinkimdoingthis
p173
aVmrsbirdies
p174
aVevilsalmon
p175
aVidtugyourboat
p176
aVthelastman
p177
aVbotw
p178
aVinstant_japanese
p179
aVunmoderated
p180
aVthe_oneders
p181
aVkmlweather
p182
aVneogodfather
p183
aVall_aflunters
p184
aVlyricist
p185
aVverygoodname
p186
aVbridgetonarnia
p187
aVleftnewdigg
p188
aVk-dawgg
p189
aVprimio
p190
aVlettherebedwight
p191
aVmooseindc
p192
aVsubliminal187
p193
aVericisweird
p194
aVoverripebanana
p195
aVtesformes
p196
aVtarable
p197
aVwingsalone
p198
aVxxwinchell23xx
p199
aVstillurking
p200
aVltshrink
p201
aVfuzzywumpkis
p202
aVkornywayz
p203
aVdontlikeclowns
p204
aVminecraft_is_hipster
p205
aVtanyagal2
p206
aVkaboose666
p207
aVtableofgeeks
p208
aVvinceidon
p209
aVfrankreynolds
p210
aVkgros004
p211
aVsolanumn
p212
aV1st_account_i_swear
p213
aVscott2chicago
p214
aVbubblegumgills
p215
aVnygalz
p216
aVbiochrome
p217
aVmaverick44
p218
aVFelipe_O
p219
aVhorny_toad2006
p220
aVegmose
p221
aVraxxarn
p222
aVomnomagon
p223
aVdelicatecrush
p224
aVgoodgodamighty
p225
aVpookie85
p226
aVjeffreyed
p227
aVlogicday
p228
aVpineapple_wolf
p229
aVfrankto
p230
aVfoki
p231
aVcrakhed
p232
aVlivingmaster
p233
aVbrightdotcom
p234
aVcutfloss
p235
aViamaslacker246
p236
aVcoconutcake
p237
aVgenerallyclueless
p238
aVcdjpurple
p239
aVelbonio
p240
aVz0bie
p241
aVclashin74
p242
aVhearip88
p243
aV_kill-fx_
p244
aVrammikins
p245
aVfatalie
p246
aVdjamberj
p247
aVwensul
p248
aVgold-coin
p249
aVsamantha797
p250
aVjeanralpheo
p251
aVdrsquishyhug
p252
aVgovalle
p253
aVsgeng
p254
aVsectorfour
p255
aVpkbooo
p256
aVgogogadgetstat
p257
aVfancy_lad
p258
aVkhalki
p259
aVdaner54
p260
aVdestudent
p261
aVcaladriel
p262
aVstevevstheworld
p263
aVtashiwa
p264
aVthr
p265
aVmcallanan
p266
aVarsenismzero
p267
aVerinpierce
p268
aVwrongwaykid
p269
aVincoherentrant
p270
aVynoty3k
p271
aVlgm1117
p272
aViheartoptimusprime
p273
aVflipfapper
p274
aVimmabeatchoo
p275
aVboatdude
p276
aVthegeorge
p277
aVloki-laufeyson
p278
aVchicharito1821
p279
aVcookiedoh
p280
aVsdtacoma
p281
aVwho_is_kaiser_soze
p282
aVmclwlm
p283
aVdowney_ryan
p284
aVedrondol
p285
aVshrapnull
p286
aVfobbingmobius
p287
aVtdralston94
p288
aVelementalrain
p289
aVincrediblep4ss
p290
aVblackleatherrain
p291
aVdyslexicpea
p292
aVthedanindanger
p293
aVoosp
p294
aVreillyboy
p295
aVharrisonfire
p296
aVin2itiveact
p297
aVghotisgirl06
p298
aVlocuester
p299
aVgama-go
p300
aVphreggs
p301
aVjetboyterp
p302
aVthreedice
p303
aVded_reckoning
p304
aVdanteburning
p305
aVcyndikins
p306
aVenforce1
p307
aVadidabiking
p308
aVtoafka
p309
aVmenmybabies
p310
aVsparty_party
p311
aVleochen
p312
aVvensik
p313
aVperezdev
p314
aVforlornhope22
p315
aVmorzinbo
p316
aVnelliebean
p317
aVdirtypaws
p318
aVladyjanegr
p319
aVmkeanon
p320
aVdanilee88
p321
aVjuggalofx
p322
aVbetter_with_salt
p323
aVjay_niel
p324
aVdrownyourfears
p325
aVcaladanbrood23
p326
aVzelmerszoetrop
p327
aVmoshimoochi
p328
aVhungrytrex
p329
aVpalagoon
p330
aVdeus_ex_eagles
p331
aVmadamepinkie
p332
atp333
Rp334
.