c__builtin__
set
p0
((lp1
Vanarchyreigns
p2
aVxxwinchell23xx
p3
aVpizzaman2012
p4
aVmvs5191
p5
aVdowney_ryan
p6
aVmiafria
p7
aVmmmcandy
p8
aVbgoodrbcareful
p9
aVstarfireliz
p10
aVosk213
p11
aVwhosthatguru_v2
p12
aVjski5711
p13
aVsynth3tk
p14
aVzstillman
p15
aVjleichtman
p16
aVbigbadjew
p17
aVthenewblueblood
p18
aVnicko9y
p19
aVedrondol
p20
aVraspberryseltzer
p21
aVyour_never_alone
p22
aVpseudo_prodigal_son
p23
aVthehopelesswanderer
p24
aVfuqyocouch
p25
aVclashin74
p26
aVjohngalt1337
p27
aVkaboose666
p28
aV_kill-fx_
p29
aVDickBaggins
p30
aVmonkeyhouse
p31
aVyunododat
p32
aVkrashenbern
p33
aVaboveyou5280
p34
aVbakersdozen13
p35
aVantibread
p36
aVkimi21
p37
aVmr_jeep
p38
aVpastafarian
p39
aVmy2penniesworth
p40
aVlaskoriff
p41
aVDEStudent
p42
aVkingkaimaui
p43
aVchupanibre25
p44
aVabrham_smith
p45
aVpandyfackerlling
p46
aVpastafariantwit
p47
aVmazdarx7guy
p48
aVbridgetonarnia
p49
aVmrsbirdies
p50
aVpizzamom
p51
aVRyzome
p52
aVglinda_da_good_witch
p53
aVMsFit
p54
aVforlornhope22
p55
aVroxieh
p56
aVcgkush
p57
aVmstina
p58
aVpaisley8827
p59
aVthelastman
p60
aVunmoderated
p61
aVJimWill
p62
aVleftnewdigg
p63
aVthetruedarkone
p64
aVprimio
p65
aVmooseindc
p66
aVhomeless_wonders
p67
aVtarable
p68
aViamtheharpy
p69
aVsbrinkley1104
p70
aVscott2chicago
p71
aVbiochrome
p72
aVpookie85
p73
aVcoconutcake
p74
aVgenerallyclueless
p75
aVodot522
p76
aVshort_lurker
p77
aVkiltedman
p78
aVgold-coin
p79
aVjeanralpheo
p80
aVdrsquishyhug
p81
aVangiowhiz1
p82
aVsumpinlikedat
p83
aVtashiwa
p84
aVjuggalofx
p85
aVarsenismzero
p86
aVthegeorge
p87
aVThreedice
p88
aVjerematic
p89
aVthemanateeman
p90
aVharrisonfire
p91
aVphreggs
p92
aVjetboyterp
p93
aVmorzinbo
p94
aVnelliebean
p95
aVdirtypaws
p96
aVladyjanegr
p97
aVmkeanon
p98
aVdrownyourfears
p99
aVoutofthewoods
p100
aVraopanon
p101
aVidem22
p102
aVdeathcabforpenguin
p103
aVjme413
p104
aVstillers412
p105
aVtuckednip
p106
aVthe_oneders
p107
aVjenadactyl
p108
aVstraha21
p109
aVairmanhand
p110
aVebitda1
p111
aVcrakhed
p112
aVcarseycritter
p113
aVdsledz
p114
aVminecraft_is_hipster
p115
aVflamingcow
p116
aVsalbito
p117
aV0mggames
p118
aVvinceidon
p119
aVdalidala
p120
aVbearvivant
p121
aVhand_out
p122
aViheartsunrise04
p123
aVminivansareevil
p124
aVanthonybsd
p125
aV1stGenRex
p126
aVafriendlysortofchap
p127
aVgloriouspeanut
p128
aVpclinger
p129
aVjabberworx
p130
aVdonitsu
p131
aVmfbyrne
p132
aVolivertw1st
p133
aVyommey
p134
aVrainerios
p135
aVIrritableOwlSyndrome
p136
aVjengomez
p137
aVbenmk
p138
aVjohnfactorial
p139
aVmexta
p140
aVmycatownsme
p141
aVrealmkiller
p142
aVpalagoon
p143
aVhalftheman1
p144
aVdeyona
p145
aVjayce513
p146
aVjeremybeadle
p147
aVjesses_girl
p148
aVSallyMacLennane
p149
aVithinkimdoingthis
p150
aVevilsalmon
p151
aVbrightdotcom
p152
aVk-dawgg
p153
aVnotbumble
p154
aVtesformes
p155
aVstillurking
p156
aVfuzzywumpkis
p157
aVdontlikeclowns
p158
aVfrankreynolds
p159
aVftothec
p160
aVgoodgodamighty
p161
aVverygoodname
p162
aVibaheir2dathrone
p163
aVuninvitedthirteenth
p164
aVfoki
p165
aVknitchick
p166
aVmayquiri
p167
aVcdjpurple
p168
aVelbonio
p169
aVhearip88
p170
aVdjamberj
p171
aVwensul
p172
aVgovalle
p173
aVsectorfour
p174
aVBriguy9876
p175
aVfancy_lad
p176
aVkhalki
p177
aVmcallanan
p178
aVdonthatemasticate
p179
aVincoherentrant
p180
aVlgm1117
p181
aVcyndikins
p182
aVcodemonkeylikefritos
p183
aVshrapnull
p184
aVegmose
p185
aVblackleatherrain
p186
aVoosp
p187
aVreillyboy
p188
aVin2itiveact
p189
aVghotisgirl06
p190
aVkigood
p191
aVthreedice
p192
aVfastizio6176
p193
aVmasterboat
p194
aVenforce1
p195
aVRZF291
p196
aVdeus_ex_eagles
p197
aVstevevstheworld
p198
aVdanilee88
p199
aVniteflirtgirl
p200
aVhungrytrex
p201
aVmadamepinkie
p202
aVamarkson
p203
aVhrnmyd
p204
aVz0bie
p205
aVnathanpaulyoung
p206
aVbetter_with_salt
p207
aVneighborhoodstranger
p208
aVprettyugly1
p209
aVhermanobluth
p210
aVSome1Random
p211
aVelectronicsnailmail
p212
aVb4tty0n3
p213
aVsjmoll
p214
aVMisterGrizzly
p215
aVfugknuckles
p216
aVadamsstash
p217
aVwomg
p218
aVi_like_owls
p219
aVforeignporn
p220
aVillgiveyouthekey
p221
aVboredaustralian
p222
aVcopred
p223
aVclarle
p224
aVclouds_rach
p225
aVlaneage
p226
aVcmdbash
p227
aVclearmoon247
p228
aVgadianton
p229
aVwchill
p230
aVsolanumn
p231
aViamaredditer
p232
aVrazzlethemall
p233
aVcoldheat
p234
aVfatmanjogging
p235
aVthedanindanger
p236
aVKYLE-BROFLOSKI
p237
aVpkbooo
p238
aVbceltics933
p239
aVryanxm
p240
aVisothien
p241
aVflawlessnoob
p242
aVthe_jury_is_out
p243
aVsueolsen
p244
aVBioraiku
p245
aVomatrisha
p246
aVodd-one-out
p247
aVduckydoom
p248
aVdezmodez
p249
aVbeatnikbillygoat
p250
aVwhubbard
p251
aVtwister17
p252
aVninjaliwa
p253
aVrogers4201
p254
aVloki-laufeyson
p255
aVtdralston94
p256
aVbotw
p257
aVkmlweather
p258
aVlyricist
p259
aVmr-smor
p260
aVlettherebedwight
p261
aVsubliminal187
p262
aVericisweird
p263
aVoverripebanana
p264
aVkornywayz
p265
aVpaulinator
p266
aV1st_account_i_swear
p267
aVbubblegumgills
p268
aVraxxarn
p269
aVomnomagon
p270
aVdelicatecrush
p271
aVcaladriel
p272
aVjeffreyed
p273
aVfrankto
p274
aValxbnt
p275
aVlivingmaster
p276
aViamaslacker246
p277
aVrhystatic
p278
aV2phresh
p279
aVsamantha797
p280
aVdaner54
p281
aVazzip_oAR
p282
aVerinpierce
p283
aVwrongwaykid
p284
aVdihydrogen_monoxide
p285
aVflipfapper
p286
aVimmabeatchoo
p287
aVtoafka
p288
aVelementalrain
p289
aVincrediblep4ss
p290
aVgama-go
p291
aVrhynovirus
p292
aVded_reckoning
p293
aVmenmybabies
p294
aVadidabiking
p295
aVsparty_party
p296
aVvensik
p297
aVthr
p298
aVzelmerszoetrop
p299
aVmoshimoochi
p300
aVbenkeiofthehillpeopl
p301
aVnandorocker
p302
aVmassawyrm
p303
aVphoto
p304
aVthumpingarnt
p305
aVpwndcake
p306
aVfivestarsoul
p307
aVmclwlm
p308
aVm2nu
p309
aVaggietimber
p310
aVunaspirateur
p311
aVtrollyx3
p312
aVlaz42
p313
aVpsm321
p314
aVdyslexicpea
p315
aVmoomoocowninja
p316
aVjay_niel
p317
aVEvilCactus
p318
aVastrogliide
p319
aVraavyn
p320
aVthisfreaknguy
p321
aVscrovak
p322
aVchalt0
p323
aVFelipe_O
p324
aVzandyman
p325
aVnygalz
p326
aVdestudent
p327
aVeetzatrap1300
p328
aVanotherguy2
p329
aViamseth
p330
aVjimwll
p331
aVall_aflunters
p332
aVfobbingmobius
p333
aVlocuester
p334
aVjimswife9
p335
aVReillyBoy
p336
aVdanteburning
p337
aVfogdelune
p338
aVCayucosKid
p339
aVkramapple
p340
aVltshrink
p341
aVdranai
p342
aVhogfathom
p343
aVafshin
p344
aVYarrg
p345
aVprovidencepariah
p346
aVpineapple_wolf
p347
aVch31415
p348
aVtrust_me_im_a_panda
p349
aVidtugyourboat
p350
aVsartim
p351
aVinstant_japanese
p352
aVsevenzig
p353
aVneogodfather
p354
aVczhunc
p355
aVwingsalone
p356
aVcookiedoh
p357
aVtanyagal2
p358
aVtableofgeeks
p359
aVkgros004
p360
aVmaverick44
p361
aVhorny_toad2006
p362
aVlogicday
p363
aVns0
p364
aVcutfloss
p365
aVahensen
p366
aVsecretsweetheart
p367
aVgratefulstringcheese
p368
aValrightillwrite2
p369
aVChairmanW
p370
aVsgeng
p371
aVSarTim
p372
aVgogogadgetstat
p373
aVdeborahb45231
p374
aVpuppeteer107
p375
aVrammikins
p376
aVynoty3k
p377
aViheartoptimusprime
p378
aVboatdude
p379
aVchicharito1821
p380
aVsdtacoma
p381
aVwho_is_kaiser_soze
p382
aVyoasty
p383
aVimperialviolet
p384
aVgoodguygregirl
p385
aVfatalie
p386
aVleochen
p387
aVperezdev
p388
aVredditg0nad
p389
aVcaladanbrood23
p390
aVIdTugYourBoat
p391
atp392
Rp393
.