c__builtin__
set
p0
((lp1
Vlynzee
p2
aVpzero
p3
aVVAN_GOGHING
p4
aVthat_is_so_awesome
p5
aVlawyerman13
p6
aVcaptainguinness
p7
aVwhatdoido101010
p8
aVoracular_
p9
aVcookie_king
p10
aVsissy1984
p11
aVvancouver1972
p12
aVFro_Daddy
p13
aVSham_Jam
p14
aVAHungryPerson
p15
aVredditchulous
p16
aVVeryProudhonOfYa
p17
aVoutlawadidas
p18
aVItzOlahBro
p19
aVpizzalovr22
p20
aVthablackphoenix
p21
aVerikpotter82
p22
aVaustocans
p23
aVTbolt2
p24
aVMathIsDelicious
p25
aVSisterHammer
p26
aVjacquibatman7
p27
aVbalfort
p28
aVSummerfools2011
p29
aVthe_hedgemon
p30
aVSneakyTikiz
p31
aVeuugie
p32
aVsoreadyourbooks
p33
aVrectumranger
p34
aVKyosama66
p35
aVsheik790
p36
aVEmeraldSupernova
p37
aVchinesemike420
p38
aVThrowaway93fdfd
p39
aVwestpfelia
p40
aVmmc21
p41
aVbananandrea
p42
aVSoldi3r
p43
aVA5M
p44
aVbitch_puddin
p45
aV0o00o00o0o00o0oooO
p46
aVKindOfWatchingYou
p47
aVPOSMStudios
p48
aVMadWhiteMan
p49
aVBernieNator
p50
aVpaypal4za
p51
aVNusent
p52
aVredditor_13
p53
aVetiolates
p54
aVbobntraci
p55
aVFlion5001
p56
aVhoganloaf
p57
aVjavilopez1
p58
aVEtherealDragon
p59
aVbrokewith2kids
p60
aVgauchoback
p61
aVThunderCockMartian
p62
aVJesusHRChrist
p63
aVBeerGeekAlpha
p64
aVzombiehannah
p65
aVtweedyourtoast
p66
aVhollyallen
p67
aVSmashAnEmoKid
p68
aVkatieetatiee
p69
aVmowwy
p70
aVLiakela
p71
aVSnappo
p72
aVPudie
p73
aVNinjakabob
p74
aViProxxy
p75
aVAlan_The_Argonian
p76
aVtlomuw1
p77
aVMrZ33
p78
aVstarlight03
p79
aVChewsti
p80
aVummmmmmmmmmm
p81
aVpinsandpearls
p82
aVswanthewarchief
p83
aVbacondev
p84
aVthunderbolt72799
p85
aVGamingMaiden
p86
aVcreativezen
p87
aVyousunkmybattleships
p88
aVgoawaynick
p89
aVNarglesEverywhere
p90
aVMoesh
p91
aVRichard_Longboat_IX
p92
aVVeryfancydoily
p93
aVgnetro
p94
aVThe_Rose
p95
aVErrchy
p96
aVakagoldfish
p97
aVthefakeanthonyscott
p98
aVtealie13
p99
aVheizmon
p100
aVwickedspork
p101
aVapesnandroids
p102
aVStreakor
p103
aVCMGJLT
p104
aVdarlantan
p105
aVTicking__bomb
p106
aVLibera
p107
aVktpvp
p108
aVLovelyLainey
p109
aVGuinniPig
p110
aVSLNapster
p111
aVtOki_Sori
p112
aVdamustardtiger
p113
aVandrewbaker_64
p114
aVbuggysmama108
p115
aVBmxerBarbra
p116
aVHobbez
p117
aVAlwaysAwful
p118
aVYardGnome
p119
aVTe5ter
p120
aVRobNoxious
p121
aVid_kai
p122
aVdrew2525
p123
aVbactchan
p124
aVramenramenramenramen
p125
aVCarpCarter
p126
aVrevant54
p127
aVAaron215
p128
aVrozap
p129
aVLotoSage
p130
aVHigglyBumps
p131
aVicemax
p132
aVbbydede
p133
aVsupertigger
p134
aVsandyholly3
p135
aVpantrybarn
p136
aVNoWordToSaveThee
p137
aVtophatmcquack
p138
aVwindowswill
p139
aVbluedays
p140
aVJaL19
p141
aVTheWorstHasYetToCome
p142
aVlegitttz
p143
aVtulk88
p144
aVsarawoof
p145
aVgrayshot
p146
aVnutri-matic
p147
aVmuchohungry
p148
aVJeremy0020
p149
aVDevron_System
p150
aVwatchwatch99
p151
aVwatchitfall
p152
aVBlazedBro
p153
aVSnipe_the_Spy
p154
aViHardlyEverComment
p155
aVrbwildcard
p156
aVMuskogee
p157
aVluckilymynameisanon
p158
aVsirmxe
p159
aVMadeOnMyRealBirthday
p160
aVsgasph
p161
aV2pour4creativity
p162
aVTonightsWhiteKnight
p163
aVMisfiled
p164
aVTheyCallMeStone
p165
aVSpudsman
p166
aVIAmAPterodactyl
p167
aVamagzz
p168
aVHPROCKS
p169
aVsophyphi
p170
aVcorytr
p171
aVsprokket
p172
aVNotAnObviousThrowAwa
p173
aVBlonde_Moments
p174
aVLonelyOnNaxos
p175
aVBigbaddaboomm
p176
aVmrhorror
p177
aVomgitsthepast
p178
aVLeSteenie
p179
aVLouie2112
p180
aVSpecro
p181
aVTrustMeImHigh
p182
aVraNraNs
p183
aVc_murder
p184
aVDocFGeek
p185
aVRainbowDashPro
p186
aVroaringbobcats
p187
aVtenaciouszep
p188
aVsecretlyalone
p189
aVbianca5683
p190
aVwittyamber
p191
aVWarriorIsCold
p192
aVbluecastle
p193
aVGloriousPaperWait
p194
aVhowmanymics
p195
aVRaeFlynne
p196
aVTeambrap
p197
aVtjk2795
p198
aVEntangledphoton
p199
aVzomboi
p200
aVflakemusic13
p201
aVSorenmatica
p202
aVBhraonain
p203
aValpha523
p204
aVSaturatedChain
p205
aVEeOhEm
p206
aVnguyengiaan
p207
aVloriann14
p208
aVlearn2beabum
p209
aVOtherRobotLuke
p210
aVStayFrostyIcebrgSlim
p211
aVradpitt
p212
aVstrictlycomeprancing
p213
aVTurkilla
p214
aVadamstributer
p215
aVilllawlatyew
p216
aVRural_Realist
p217
aVDodongoDislikesSmoke
p218
aVVassss
p219
aVTriggerdbyChrono
p220
aVsicilianhotdog
p221
aVspazmodial
p222
aVNorthAve
p223
aVelephantbuttons
p224
aVBarelyNerdy
p225
aVsloecks
p226
aVfrogfreek
p227
aVScaredPartner
p228
aVpurseon
p229
aVmercmaid
p230
aVFrizzelles
p231
aVRomnix
p232
aVnevermind924
p233
aVoccuwalrus
p234
aVr0ryfromNY
p235
aVrjhomer
p236
aVIronswing
p237
aVjaymayk
p238
aVeq1725
p239
aVMiguel2592
p240
aVCreamchz
p241
aVShyr
p242
aVdlnmtt
p243
aVkillerwarpig22
p244
aVTricher619
p245
aVProdigy095
p246
aVsilver0a1
p247
aVWolfeman0101
p248
aVmedelyman
p249
aVSwineavionics
p250
aVHalpImACat
p251
aVthedragslay
p252
aVMyKarmaKilledURDogma
p253
aVLittleRedReadingHood
p254
aVHiredfinally
p255
aVdmcmd81
p256
aVnikkid234
p257
aVBensteez
p258
aVJx22
p259
aVcharliebatch
p260
aVAvatarMajere
p261
aVSparkitten
p262
aVliberalwhackjob
p263
aVFuzzywumpkis
p264
aVfattyboombaladee
p265
aVcogitaveritas
p266
aVtimefornothing
p267
aVelephantblueshoe
p268
aVrabidsi
p269
aVOrangeslayer
p270
aVTabbycat719
p271
aVG1oves
p272
aVendersynthia
p273
aVAbstractCelebrity
p274
aVhipsterhater608
p275
aVHelloUnderworld
p276
aVmisterradon
p277
aVNinjamonkeysd
p278
aVoverindulgent
p279
aVcalculuzz
p280
aVRastro
p281
aVfrankcbright
p282
aVass2ass
p283
aVmaigotsohongry
p284
aVjohnny2by4
p285
aVDrPepperHelp
p286
aVricecake23
p287
aVczeroes
p288
aVjedberg
p289
aVdrdan1991
p290
aVPhllpkrn
p291
aVtvrmoil
p292
aVsenior2012
p293
aVWolfDroid
p294
aVDumbDumbFace
p295
aVBobbinThreadbare
p296
aVeastcoastin
p297
aVshopgirl6837
p298
aVtheserpentsmiles
p299
aVLittleMissBlue
p300
aVPauseBack
p301
aVa_wizard_diddit
p302
aVjpop325
p303
aVjomomasdady
p304
aVCharlieScott89
p305
aVgjrunfast
p306
aVcl0ckw0rk0rang3
p307
aVSir_Dalek
p308
aVStormRider2407
p309
aVgenericgamer
p310
aVtrixner
p311
aVSlipShift
p312
aVFPSalchemy
p313
aVStopYellingAt_Me
p314
aVIngerwolf
p315
aVdeerface
p316
aVthatandy
p317
aVHekain
p318
aVI_Cry_Everytime
p319
aVT0bster
p320
aVWhatsausernameHF
p321
aVCappyTheCook
p322
aVblackprince542
p323
aVMethystria
p324
aVecclecticc
p325
aVMildcorma
p326
aVSvenTreDosa
p327
aVlolzombies
p328
aVjjcrux
p329
aVjenny_dur
p330
aVthrowaways_
p331
aVdrcazes
p332
aVambitiousjuvenile
p333
aVkukukajoonurse
p334
aVozarkaman
p335
aVShpook
p336
aVxZack
p337
aVclambaked
p338
aVvonswain
p339
aVRomeKo
p340
aVTouchy_touchy_no_no
p341
aViheartreddit420
p342
aVtheflyhomie
p343
aVShufflegirl
p344
aVViolentOctopus
p345
aVfamilyinneed80
p346
aVangelgirl19879
p347
aVElemori
p348
aVFrostyra
p349
aVNoLuckYet
p350
aVsterfried
p351
aVadmdelta
p352
aVraisinghope
p353
aVdotnorma
p354
aVzratz3171
p355
aVNJMom
p356
aVquasarqueenz
p357
aVtyman1180
p358
aVvertstang86
p359
aVMentlegenBacon
p360
aVarquebus77
p361
aVZeno666
p362
aVtheLBD
p363
aVptakd33
p364
aVaureality
p365
aVChiChiGonzales
p366
aVmaybesproutwings
p367
aVDavisKennethM
p368
aVMyGoodGreenDay
p369
aVmoosemorse
p370
aVTaymuffin
p371
aVZacAtom
p372
aVtincanweeekly
p373
aVstreetmanjoe
p374
aVjdbrat03
p375
aVcaimaela
p376
aVTheHoffman
p377
aVUSABMXer
p378
aVGomazing
p379
aVitsbehindyou
p380
aVAbsoluteHero
p381
aVgreen_eggsandham
p382
aVmattryanharris
p383
aVchowcow
p384
aVMynameisMormon
p385
aVIt_Happens_
p386
aVHOLATME
p387
aVMcsleuthbrgr
p388
aVplayuhh
p389
aVLokithedeceiver
p390
aVhlmtre
p391
aVMetricMike
p392
aV6whiteboomers
p393
aVeric22vhs
p394
aVFd657
p395
aVleetdood
p396
aVjesspest
p397
aVpizzaguy1234
p398
aVDigitalQuixote
p399
aVjimmyomalley01
p400
aVElbobtheburrito
p401
aVBoredDellTechnician
p402
aVadidaman
p403
aVISeeYouuu
p404
aVdinnersnotready
p405
aVrhys91
p406
aVbaggins
p407
aVthebuttholehunter
p408
aVohgodwhyisthishappe
p409
aVkazooie777
p410
aVDallas_Corbin
p411
aVReyz0rd
p412
aVSarioth
p413
aVJeexyou
p414
aVGraceAzuka
p415
aVcp7825
p416
aVMattMac124
p417
aVrken3824
p418
aVtherunawaygoldfish
p419
aVRozsd_s
p420
aVcinematicandstuff92
p421
aVAyMiles
p422
aVAboveYou5280
p423
aVcharliej
p424
aVtheRoost3r
p425
aVmimic42100
p426
aVkeasbey15
p427
aVMaggotStorm
p428
aVdenimthrowaway
p429
aVthomasthon
p430
aVtrutalk
p431
aVmoomoo420
p432
aVdabeanbandit
p433
aVSeanmatthewleary
p434
aVwjames88
p435
aVsnlich
p436
aVgoddamnjuice66
p437
aVedgedonkey
p438
aVI_iz_hungry
p439
aVso_damn_hungry
p440
aVchhill2
p441
aVpinkswan09
p442
aVDerMetzgermeister
p443
aVarekususan
p444
aVXombieshovel
p445
aVwenchers13
p446
aVkhanyr
p447
aVrasungod0
p448
aVtaylormitchell20
p449
aValicelnwonderland
p450
aVluiseuc
p451
aVtheresaneyeinmesoup
p452
aVredwinters
p453
aVmrplainview05
p454
aVMikeEnIke
p455
aVflinteastwood
p456
aVtreepig
p457
aVNeousername
p458
aVMrTightButt
p459
aVMegaross
p460
aVWildBeards
p461
aVmuffinsformen
p462
aVadrearly
p463
aVshnuffy
p464
aVyampuffs
p465
aVPhilosoraptorMD
p466
aVbobmooney
p467
aVquaintmercury
p468
aVryukatsusei
p469
aVsimplyashley21
p470
aVBrototo
p471
aVilea316
p472
aVclong2
p473
aVspoon2bigg
p474
aVavianavery
p475
aVfonzie588
p476
aVdehOne
p477
aVStormynyte
p478
aVwonderdog17
p479
aVTwilight_Sparkles
p480
aVbledsoep
p481
aVthat_guy_who_shops
p482
aVaceballos
p483
aVdfa649
p484
aVKaidenshiba
p485
aVmediocrist
p486
aVnaseK
p487
aVCaptainFuckingPlanet
p488
aVshowurnuts
p489
aVraNraNskynet
p490
aVflywheel521
p491
aVikelewis
p492
aVPotentPollen
p493
aVarrpee3
p494
aVThe__Doctor__
p495
aVkyle_p_g
p496
aVFlyYellowMoon
p497
aVbitner91
p498
aVthe_real_davenull
p499
aVScione200417
p500
aVRydillac
p501
aVliberalartsguy
p502
aVMulligan1445
p503
aVhomicidalfetus
p504
aViluvmyfamily
p505
aVcherget
p506
aVlawlrence
p507
aVRoxanneANDLilly
p508
aVhaaallleeeyy
p509
aVCuboner
p510
aVTCizzlage
p511
aVIdahoTrees77
p512
aVrubenik
p513
aVSomniSmith
p514
aVJbojackson
p515
aVhardfemmewitch
p516
aVchebsss
p517
aVBonkotsu89
p518
aVHavartiParty
p519
aVdunnowhatnametouse
p520
aVElliottChipmunk
p521
aVphatcat09
p522
aVFeversMirrors
p523
aVMindinMind
p524
aVserenalunarose
p525
aVpunkwaitress
p526
aVasitransmissions
p527
aVsillysouthgal
p528
aVSenorPizza
p529
aVicycreamy
p530
aValostcause
p531
aVBOBBmmmmmm
p532
aVcarlos118
p533
aVDetached09
p534
aVrerodinohunter
p535
aVPhilosophyforever
p536
aVUglyKid95
p537
aVRedbutter
p538
aVBeatlejuice1661
p539
aVMiniMoog
p540
aVdutchholland
p541
aVjarizzle151
p542
aVEverythingAnything
p543
aVDwg2003
p544
aVBangThyHeadChild
p545
aVBoopysRevenge
p546
aVmilota
p547
aVredditiculousness
p548
aVyixing
p549
aVNachoCupcake
p550
aVdavidreavis
p551
aVpeppermintsauce
p552
aVMutatedGamer
p553
aVkegfreak
p554
aVloudmast
p555
aVboardpreppinmedstdnt
p556
aVmarlark
p557
aVWallywarus
p558
aVtommybrohama
p559
aVvictorm3
p560
aVZayth
p561
aVspacierharbor
p562
aVDankness_Himself
p563
aVRahvinsix
p564
aVPrego_Interrupted
p565
aVallfourmykids
p566
aVwecandoit1
p567
aVTrainwhistle
p568
aVjakjg
p569
aV5yardfacemask
p570
aVpizzatroll69
p571
aVMudkipman
p572
aVduckydoom
p573
aVlincoln_loggers
p574
aVarcnotl
p575
aVDCFKID12
p576
aVATC93
p577
aVmrskimchi
p578
aVyoung_neil
p579
aVChronicBoner
p580
aVEyeSpy_
p581
aVFreshCitrus
p582
aVcoltboy
p583
aVmariorising
p584
aVGreendragon24
p585
aVben_durr
p586
aVKgtv123
p587
aVr0ss0me
p588
aVdantondrobot
p589
aVSPMex760
p590
aVdjPARADISE
p591
aVJames1o1o
p592
aVbunnylove69
p593
aVyouareadouchebag2
p594
aVsam678
p595
aVkimmyjay
p596
aVwillowroad
p597
aVkestrelraiders
p598
aVAxeltoss
p599
aVLiquorsnacks
p600
aVzeeksandroid
p601
aVmindfragment
p602
aVrhifooshwah
p603
aVJayAre88
p604
aVMamaLuck2x2
p605
aVF4113N
p606
aVconsumedbythefire
p607
aVFlooMad
p608
aVTheLastRealAccount
p609
aVmollymcbutter1
p610
aVwishfulsinking
p611
aVcoppawallap2
p612
aVreagansquad
p613
aVhjemisalive
p614
aVthought_i_hADDhERALL
p615
aVvanessavanessanessa
p616
aVlolbbqstain
p617
aVStepOnYourFunk
p618
aVtenderrrr
p619
aVshellsbell
p620
aVASACschrader
p621
aVjackfuture87
p622
aVLxr159
p623
aVgale_tomlinpeaches
p624
aVguitarist231
p625
aVkittybiscuits
p626
aVSkyMuffin
p627
aVfredcash
p628
aVhereforaday
p629
aVVicHoliday
p630
aVwhydidigotouni
p631
aVdashindarlin
p632
aVRaeyus
p633
aVusctrojangirl
p634
aVviperansty
p635
aVHybohead
p636
aVnoideaman
p637
aVpist_thera
p638
aVaslhq
p639
aVikomimksE
p640
aVsillyhufflepuff
p641
aVHideaki02
p642
aVEJSpurrell
p643
aVniigakimari
p644
aVmastermodr94
p645
aVAlokiya
p646
aVSuperRecoveryMom_
p647
aVrdarkslayer
p648
aVowmyjoints
p649
aVLizzyD86
p650
aVSimianRex
p651
aVEvolv3
p652
aV604nucks
p653
aVtofaraway4u2hold
p654
aVkassietullock1
p655
aVTabor91
p656
aVdarthfapper
p657
aVmellomeh
p658
aVThrashblade
p659
aVnature_unveiled
p660
aVNameForMyAccount
p661
aVpathwaysyorkregion
p662
aVSirEdward43
p663
aVGalloJD21
p664
aVxxrocksteadyxx
p665
aVTaylerMykel
p666
aVpeetzathrowaway
p667
aVmonkeysnarls
p668
aVLibraryGeekGirl
p669
aVsfp5005
p670
aVseanpadraic
p671
aVdrunkinmilwaukee
p672
aVDollarMenuHero
p673
aVi_m_here
p674
aVblogger4DC
p675
aVSeiduna
p676
aVfluxtor
p677
aVClicky12
p678
aVchunk609
p679
aVSleezy_T
p680
aVthomrobb
p681
aVkeikeibug2008
p682
aVohwouldntitbenice
p683
aVCannabisCorpse
p684
aVgeauxreddit
p685
aVTheWorldmind
p686
aVemajoranna
p687
aVaggiecath14
p688
aVCyrusTheRed
p689
aVrushfan801
p690
aVZaxmaur
p691
aVbelonii
p692
aVslomotion
p693
aVsushisamurai90
p694
aVAndroidAR
p695
aVmcFLOW
p696
aVcaitwheatener
p697
aViguessimnic
p698
aVdajensen
p699
aVprincessemily30
p700
aVtommygunner91
p701
aVrawrimapanda
p702
aVglendaliontamer
p703
aVhullobirdy
p704
aVgabachini
p705
aVcloudpelt
p706
aVoconnell1103
p707
aVDamien_666
p708
aVquistis1189
p709
aVjojo913
p710
aVajdl334
p711
aVhappycheese86
p712
aVStoopiBird
p713
aVregularITdude
p714
aVgetya
p715
aVMSopenMyMind85
p716
aVincubus809
p717
aVnekosune
p718
aVKevRose
p719
aVPlamZ
p720
aVRUPTURED_ASSHOLE
p721
aVBellsie
p722
aVpokemom667
p723
aVdell90wattac
p724
aVthewaterballoonist
p725
aVtroj4nk1ng
p726
aVChevy000
p727
aVMeghanReneex0
p728
aVHardWorkingWoman
p729
aVforceuser
p730
aVhovding
p731
aVeelassirak
p732
aVthegurth
p733
aVJC08
p734
aVchristian_smith
p735
aVlilmissy91
p736
aVmorose_
p737
aVPlastic0Cow
p738
aVreallycouldusefood
p739
aVCovenfather
p740
aVgalwayjedi
p741
aVHadouken2012
p742
aVluhhhren
p743
aV20TL12III
p744
aVSonoskeAkigawa
p745
aVlolcatcatlol
p746
aVCHEMO_ALIEN
p747
aVdr_bruce_banner
p748
aVkillmesara
p749
aVleiferic
p750
aVnotBrit
p751
aVTRAUMAjunkie
p752
aVRagingBearFish
p753
aVKiloTheOperator
p754
aVgenerichandsomeman
p755
aVTreeStarr
p756
aVFlowerChica92
p757
aVGlynny
p758
aVHurricaneIreneSucks
p759
aVohmytvc15
p760
aVsaveonesavetheworld
p761
aVlovinmybabies
p762
aVworks0fheart
p763
aVzsnow
p764
aVrockstarlove2009
p765
aVTekn0junkie
p766
aVSephiroths_Bitch
p767
aVjakebluu
p768
aVvoxpopulivoxdei
p769
aVSteve216
p770
aVAdamGeorge4
p771
aVaaaashc
p772
aVWalterGrove
p773
aVyupitsaslie
p774
aVAlicia_deaun
p775
aVstinkinlikerehats88
p776
aVdomkennedy
p777
aVArmyofthe12monkeys
p778
aVayellellwhyesesay
p779
aVzakattak26
p780
aVericjraack
p781
aVsamandthewhale
p782
aVRuMCaKeS
p783
aVDamselsAndDragons
p784
aVAdmiralQuackbar
p785
aVxyz66
p786
aVKyrrd
p787
aVjplank1983
p788
aVnosense616
p789
aVthegreatcanadianehp
p790
aVRev_Quackers
p791
aVsiwitt
p792
aVggcc
p793
aVtruthinessly
p794
aVpaultagonist
p795
aVelephantangelchild
p796
aVzeromodulo
p797
aVsarahh83
p798
aVslartbarg
p799
aVchantel_deaton
p800
aVvurtigo
p801
aVdanhalligan
p802
aVIduna13
p803
aVRose94
p804
aVNovakanator
p805
aVBambilla
p806
aVGrungymingo
p807
aVsandysamom
p808
aVmatthewscottcollins
p809
aVDrynian
p810
aVriceab76
p811
aVhumpierbus
p812
aVsmartsoldier
p813
aVcondiotti
p814
aVBowlingrl13
p815
aVgriz120
p816
aVhypecat
p817
aVTankercow
p818
aVTurkDavidson
p819
aVcdal06
p820
aVsamw3d
p821
aVFeSki
p822
aVseanbateman7
p823
aVSophieBulsara
p824
aVainokun
p825
aVRP_Fan
p826
aVDestroyAllWhoShow
p827
aVshmily16
p828
aVjack54
p829
aVKipps34
p830
aVspunX44
p831
aVbromac
p832
aVSteveturds
p833
aVjoey_z
p834
aVTheSkeward
p835
aVPotentiaLSc2
p836
aVStarlightxUK
p837
aVmsmisfit138
p838
aVnomyourheartout
p839
aVsoapbarrace
p840
aVCharBrar
p841
aVithinkimdoingthis
p842
aVSirSquirrel
p843
aVtruwarier14
p844
aVDiogo1522
p845
aVpantherking
p846
aVipatch
p847
aVbinarypower
p848
aVjamesyorkdrake
p849
aVJoeramos
p850
aVradioboy
p851
aVJRBro
p852
aVMonsterIt
p853
aVDiegoTheGnome
p854
aVsirwillis
p855
aVsamuraisports37
p856
aVurbancollegekid
p857
aVieatoctopies
p858
aVimpispro
p859
aV14andfunny
p860
aVcheesepile
p861
aVyummyfrenchfry
p862
aVshazztastic
p863
aVZeeeeBro
p864
aVjbrinskele
p865
aVsleazyrider
p866
aVsaprious
p867
aVdruid_king9884
p868
aVdropitonhishead
p869
aVstarvedin
p870
aVweedandmountaindew
p871
aVlonglive_yossarian
p872
aVpoup_soup_boogie
p873
aVpasikobri
p874
aVReallyHungryGuy1
p875
aVTrixieBastard
p876
aVstaglord
p877
aVAshlee418
p878
aVmisstrace
p879
aVDonna3
p880
aVsqeak
p881
aVSgtSloth
p882
aVlukiee
p883
aVGeno42
p884
aVericishere
p885
aVBearaidz
p886
aVMiddleSidePunk
p887
aVspazmonkey1565
p888
aVBelumes
p889
aVphilipschall
p890
aVmrex2
p891
aVanalreceiver
p892
aVTammieK
p893
aVThrasherAlliance
p894
aVbklynboy89
p895
aVblueeyedmommy
p896
aVApril9321
p897
aVr502692
p898
aVApicalmeristem
p899
aVnuerient
p900
aVclanksy
p901
aVhurgh55
p902
aVyourethatguy
p903
aVwonkizzle
p904
aVxuryfluous
p905
aVfelixvbaldr
p906
aVKimmikaze78
p907
aVmightymouz
p908
aVseriouslyhungry
p909
aVDireAngel
p910
aVrussian2013
p911
aVshini32
p912
aVNecrizzo
p913
aVweerdio
p914
aVkalban777
p915
aVMrCassian
p916
aVcowboy_mike
p917
aVMasterBlaster860
p918
aVetherealautumn
p919
aVMmohawkmanN19
p920
aVReddititorio
p921
aVHalfGingGhost
p922
aVindianagirljw
p923
aVtheRealFattyJ
p924
aVMrPhatJared
p925
aVcbodin
p926
aVgneiss-platypus
p927
aVsomporn
p928
aVlogueadam
p929
aVxvoro
p930
aVFunkrocker
p931
aVEgem14
p932
aVKolkskeggr
p933
aVNeeps89
p934
aVLindaK1988
p935
aVBewmkin
p936
aVLol_Cancer
p937
aVjanon330
p938
aVyoure-a-cat-gatter
p939
aVcat-lady-barbie
p940
aVnaughtybookworm
p941
aVriotxjess
p942
aVmkolkin
p943
aVKickerS12X
p944
aVhighlnder777
p945
aVmizoungu
p946
aVBeccadex
p947
aVannYongASAURUS
p948
aVElleyena
p949
aVsnowwhite394
p950
aVsomedude010
p951
aVhopefulsarah
p952
aVHagenDaaz
p953
aVamericanjerk
p954
aVMr_Do_do
p955
aVzoosquirrel
p956
aVGuyInTheShed
p957
aVPUNKSHAMAN
p958
aVKYgirl89
p959
aVomfgtom
p960
aVHovdizzle
p961
aVskrilly
p962
aVrobyntastic
p963
aVMyAverageDay
p964
aVgormanboy
p965
aVeaglebtc
p966
aVTofuTakahashi
p967
aVbigbuzd1
p968
aVrealizerealeyes
p969
aVrituyen
p970
aVPatmybody
p971
aVriptombosley
p972
aVhenington
p973
aVnatemendel
p974
aVLackspotential
p975
aVindy_throwaway
p976
aVThe6ofUS
p977
aVgracebatmonkey
p978
aVwaitingforthehail
p979
aVRobotOctopus3000
p980
aVWillowmaker
p981
aVJuiceyp
p982
aVPyroTechnicalnsanity
p983
aVhentercenter
p984
aVBoxingcats
p985
aVCrapturret94
p986
aVxoyie
p987
aVlexifus
p988
aVTheoritis
p989
aVmumphster
p990
aVNick_Dipples
p991
aVfURRYSUN
p992
aVCaptJames
p993
aVDownloadableCheese
p994
aVtsuto
p995
aVEpicLakai
p996
aVnancynaturally
p997
aVkgrayflix
p998
aVmonkeytits
p999
aVWishIWereHere
p1000
aVUmbrellaWolf
p1001
aVlimits55555
p1002
aVoranges_are_tasty
p1003
aVthelaststop
p1004
aVRingoTheSquid
p1005
aVrido98
p1006
aVpacreams
p1007
aVLamRoss
p1008
aVDevbo19
p1009
aVTransparent_Taco
p1010
aVmadmikewindows
p1011
aVdoworkz
p1012
aVNoFoodButLifesGood
p1013
aVShadowXSeeker
p1014
aV3ll3
p1015
aVringokid
p1016
aVMortaLPortaL
p1017
aVr4v5
p1018
aVdrankrobot
p1019
aVclimb0r
p1020
aVMissBrendaSue
p1021
aVLambke
p1022
aVThe_Wily_Curmudgeon
p1023
aVdizzybum
p1024
aVRory_Gee
p1025
aVpapillae
p1026
aVhungry5742
p1027
aVll0ll0ll0
p1028
aVyohek1301
p1029
aVcurious-creationist
p1030
aVpostfish
p1031
aVKYmommy216
p1032
aVkaynebee
p1033
aVdenise29
p1034
aVsubot
p1035
aVelp9879
p1036
aVgleefulmidget
p1037
aVjessejames204
p1038
aVThunder_Powny
p1039
aVSiouxElk113
p1040
aVblueoctopus
p1041
aVNightsfaded
p1042
aVFrubah
p1043
aVhungryinfarmville
p1044
aVcscppnoob
p1045
aVlivingincali
p1046
aVlaydee
p1047
aVsawalrath
p1048
aVSulamar
p1049
aVNephrastar
p1050
aVLHFan23432
p1051
aVBurritoVonBean
p1052
aVxIndirect
p1053
aVbbqchickenisgood
p1054
aVLakerz4life
p1055
aVMansionTheHutt
p1056
aVshizanski
p1057
aVClownpounder2442
p1058
aVBaptise
p1059
aVBobbyJDun
p1060
aVClasstoise
p1061
aVmakemyanniversary
p1062
aVBoomyMan
p1063
aVturfguytx
p1064
aVdandan97
p1065
aVkicking_wing08
p1066
aVAureleah
p1067
aViamagiraff3
p1068
aVRockNRollahAyatollah
p1069
aVdarthjoey91
p1070
aVpcs2012
p1071
aVStoodius
p1072
aVTheDanVail
p1073
aVdefcoxl
p1074
aVdcasey123
p1075
aVbengringo2
p1076
aVSturdybody
p1077
aVfdhfjdfkhd
p1078
aVZombie_Twatz
p1079
aVzodiacfox
p1080
aVFSMLovesYou
p1081
aVdrfeelgood60
p1082
aVNightkind7512
p1083
aVprincessbutch
p1084
aVAbbeyCloister
p1085
aVVesseth
p1086
aVstarfleetofficer
p1087
aVdelkinba
p1088
aVmomdadhelp
p1089
aVPolly10
p1090
aVharryeffingpotter
p1091
aVOHMEGA
p1092
aVsteezy1
p1093
aVTexanInExile
p1094
aVp0ns
p1095
aVxobeckaxo1
p1096
aVgartertrap
p1097
aVallido
p1098
aVScottruss
p1099
aVgwisawesome
p1100
aVPapaOomMowMow
p1101
aVtwopoorstonerchicks
p1102
aVphelpsben
p1103
aVKoroshi
p1104
aVMoofiePizzabagel
p1105
aVMrBoogalu
p1106
aVgirlinacoma
p1107
aVinstagig
p1108
aVgreyshadow_7
p1109
aVLachryman
p1110
aVgalaxypanda
p1111
aVpreachfreedom
p1112
aVgimmick1025
p1113
aVExelus
p1114
aVKnapkin
p1115
aVderpderper
p1116
aVzerodymeu
p1117
aVriceforlife
p1118
aVrpivonka
p1119
aVJoeF86
p1120
aVSentient_Lichen
p1121
aVShangtia
p1122
aVravens52
p1123
aVbjessicarenee
p1124
aVThrice1337
p1125
aVproFRESHional
p1126
aVtable95
p1127
aVMetiphis
p1128
aVJPiratefish
p1129
aV4215
p1130
aVmitchellmm02
p1131
aVthejollytramp
p1132
aVch2st
p1133
aVlivefox
p1134
aVIpreferbeerinacoozy
p1135
aVTasleus
p1136
aVin5an17y
p1137
aVHannaJamesLee
p1138
aVcmosa
p1139
aVcgillett
p1140
aVZoeysmom
p1141
aVopticbit
p1142
aVdistractedminds
p1143
aVHman07
p1144
aVWaffleman75
p1145
aVkriestla
p1146
aVnosafeharbor
p1147
aVembarrassedinflorida
p1148
aVlilysnape
p1149
aVCoastieThaMostie
p1150
aVsnappergk
p1151
aVmfender7
p1152
aVClurshank
p1153
aVfolxify
p1154
aVmaudib666
p1155
aVchestdumpsupreme
p1156
aVpootytang324
p1157
aVticklemehoho
p1158
aVantgly
p1159
aVmatrim611
p1160
aVvolcomador64
p1161
aVMetroidAndZeldaFan
p1162
aVClemsonLaxer
p1163
aVartisticsubmission
p1164
aVGlisteningDragon
p1165
aVanticipatedgiant
p1166
aVmanyhattedman
p1167
aVbrklyntaylr
p1168
aVhuuuungryredditor
p1169
aVKYmommy87
p1170
aVKYmommy84
p1171
aVLexisTerrifico
p1172
aVFragex
p1173
aVChanceMercy
p1174
aVBlackLabel2021
p1175
aVand_so_it_is
p1176
aVfoogrrr
p1177
aVticklesoda
p1178
aVArt1san
p1179
aVInukaza
p1180
aVSatans_Mistress
p1181
aVAfricanSTARFOX
p1182
aVCaveWitch
p1183
aVdamntomfoolery
p1184
aVhavingdizziness
p1185
aVclist440
p1186
aVandthatsthewayitis
p1187
aVGeorgeh212
p1188
aVFindmodestanswer
p1189
aVmixmastermind
p1190
aVShoesWithSouls
p1191
aVjohn_wu
p1192
aVDeodorant23
p1193
aVareraswen
p1194
aVHopeeternal
p1195
aVFatStupidAmerican
p1196
aVUtopianEmpress
p1197
aVpondy_
p1198
aVmattrollz
p1199
aVhilaroo
p1200
aVadrewryan
p1201
aVShiaar
p1202
aVRafiki123
p1203
aVbiffle
p1204
aVNowwhatdoyoumean
p1205
aVdbrownbear
p1206
aVPiraticalstyle
p1207
aVJEDI_DIAH
p1208
aVhaox72
p1209
aVPopsiclePadre
p1210
aVRed_Chaos1
p1211
aVmarkthis
p1212
aVIstonian
p1213
aVrootrhythm
p1214
aVstretch_harmstrong
p1215
aVthis-is-my-design
p1216
aVraopdc
p1217
aVdevonjackson
p1218
aVcorknazty
p1219
aVellomate
p1220
aVBeMySerene
p1221
aVjourney819
p1222
aVgregmuldunna
p1223
aVPaulWR
p1224
aVbitofaboss
p1225
aVzombiedo0d
p1226
aVCupcakeFetish
p1227
aVOscar_Rowsdower
p1228
aVBAH2011
p1229
aVintothesunbeams
p1230
aVshhmile
p1231
aVskimzo
p1232
aVAngusthe2nd
p1233
aVhardworkingdad
p1234
aVhandstanding
p1235
aVjmoney73
p1236
aVNerdWith_A_Tan
p1237
aVroguediamond
p1238
aVSgtWaffles2424
p1239
aVforgottenapostle9
p1240
aVCustardCreamUK
p1241
aVJimmyNinja89
p1242
aVconstantSarcasm
p1243
aVd0nt_b1ink
p1244
aVIsenttheD
p1245
aVLysanias
p1246
aVConservativeVictory
p1247
aVMollyHatchetBabe
p1248
aVmissyx
p1249
aVNeprut
p1250
aVtodayforyuuu
p1251
aVreptarking37
p1252
aVklunkie
p1253
aValmightybob1
p1254
aVKFCatz
p1255
aVhonest_hungry_guy
p1256
aVCrowingNevermore
p1257
aVSmirf311
p1258
aVNastyBigPointyTeeth
p1259
aVSeaTownNems
p1260
aVHashoil
p1261
aVTheGreenJuan
p1262
aVdudewiththebling
p1263
aVmikepence
p1264
aVDakx
p1265
aVciredux
p1266
aVmeltedcheeser
p1267
aVIHaveARagingClue
p1268
aVMrSquish
p1269
aVariqisab0ss
p1270
aVikell3
p1271
aVJnorkett
p1272
aVkmtomlin
p1273
aVkbsmom1031
p1274
aVwtfmica
p1275
aVYonderLust
p1276
aVBarry_McCocener
p1277
aVTheycallmeFoxJohnson
p1278
aVJew_Pac
p1279
aVkiss62122
p1280
aVZebattlefieldz
p1281
aVjedi1354
p1282
aVHornstar19
p1283
aVmercatormapv2
p1284
aVPocYo
p1285
aVkirakas
p1286
aVPanic_Panda
p1287
aVCirri
p1288
aVEngelbertHerpaderp
p1289
aVicbat
p1290
aVOverieaction
p1291
aVDirtyplastix
p1292
aVHaveAMap
p1293
aVquincy_c3
p1294
aVcheyfamily5
p1295
aVrebelwithkidz
p1296
aVToastTheHero
p1297
aVYesIamaWizard
p1298
aVnowantOAG
p1299
aVAshleyTomlinson
p1300
aVwindozxpert
p1301
aVanchorchain
p1302
aVRelkeb
p1303
aVapt0s
p1304
aVd0ze143
p1305
aVThe_reflection
p1306
aVstifflerkatie
p1307
aVmisslindsayv
p1308
aVWheelsandthe-legman
p1309
aVcompton89
p1310
aVbdalebs
p1311
aViswearihaveboobs
p1312
aVNiaEvans008
p1313
aVnotions2011
p1314
aVLittleworldbigheart
p1315
aVkenshira
p1316
aVlaserpony
p1317
aVvisvires
p1318
aVAwesomeIncarnate
p1319
aVa_funsized_gentleman
p1320
aVYoahLow
p1321
aVZMerrell
p1322
aVgrapejuiceisblah
p1323
aVdeathring109
p1324
aVbananaslughippie
p1325
aVzerocoal
p1326
aVTomcatjones
p1327
aVHelpMePliz
p1328
aVAToucanWorthyCaw
p1329
aVDallasrenter
p1330
aVCanzary
p1331
aVgnosnaz
p1332
aVk3kz
p1333
aVfigglefox
p1334
aVhungry4pizzzza
p1335
aVDeviankings
p1336
aV13853211
p1337
aVthelastbandito
p1338
aVunkinhead
p1339
aVGODDAMNLitreOfCOLA
p1340
aVGO_GREEN_GO_WHITE
p1341
aVDownByLaw524
p1342
aVawwshucks3
p1343
aVanimeneenee
p1344
aVCocomunky
p1345
aVtexashorn352
p1346
aVbabygirl630
p1347
aVnoobatronz
p1348
aVwillendorfmedia
p1349
aVvaloraeon
p1350
aVsergeantbadasses
p1351
aVFreshCrabMEAT
p1352
aVregfox
p1353
aVDaddyM
p1354
aVswilltastic
p1355
aVgumiho9
p1356
aVCallMeLorenzo
p1357
aVedukaycheon
p1358
aVDrWonton
p1359
aVreginaldKRAY
p1360
aVthomasmriddle
p1361
aVHngrySunDevil
p1362
aVArfurTrollington
p1363
aVhalsmypal
p1364
aVsickoframen
p1365
aVMitchellHaaland
p1366
aVDown_But_Not_Out
p1367
aVsapzilla
p1368
aVSallyinCali
p1369
aVdoodle7020
p1370
aVBodybombs
p1371
aVzuggle
p1372
aVCooldude4real123
p1373
aVxEverglowx
p1374
aVLynch_Diggers
p1375
aVcsfromhell
p1376
aVconbel
p1377
aVTheDanthrax
p1378
aVkashra
p1379
aVghostofahorse
p1380
aVDrOgdenWernstrom
p1381
aVSweetJesusBatman
p1382
aVgridx
p1383
aVseaLclubbeR11
p1384
aVisolatedmuse
p1385
aVmauvetock
p1386
aVScumbagInc
p1387
aVbusch_chugger
p1388
aVFreeThinkerLee
p1389
aVswdpwnzdggr
p1390
aVlowcountrylurker
p1391
aVcoffeebeans10
p1392
aVbabygiraffe67
p1393
aVJindalunz
p1394
aVSexxyZombie
p1395
aVLiterallyProbably
p1396
aVreavercleaver
p1397
aVmintty92
p1398
aVFurryPurp
p1399
aVGoluxas
p1400
aVTouchingTori
p1401
aVkangaroo2
p1402
aVAppletwist
p1403
aValfadog77
p1404
aVjoealanbrooks
p1405
aVJenmama
p1406
aValansmithee331
p1407
aVTevlarHooperson
p1408
aVtheduke1204
p1409
aVGrimmjow459
p1410
aVmicrosoft301
p1411
aVteacherstudent
p1412
aVhospitaltapes
p1413
aVcorbeeZ
p1414
aVyhwksa
p1415
aVCaviarmy
p1416
aVSurlan
p1417
aVTheWhiteRabbitY2K
p1418
aVCeleryMonster
p1419
aVmj052506
p1420
aVunluckymage
p1421
aVstupidfrikkenthrwawy
p1422
aVA_Lychee_Tree
p1423
aVListenBillyPilgrim
p1424
aVKytyMeowFace
p1425
aVtake_me_home_tonight
p1426
aVthesmall
p1427
aVdavidduckface
p1428
aVzooey_roses
p1429
aVjwilsoncollege
p1430
aVAthardude
p1431
aVToppedOff
p1432
aVIHSV_1855
p1433
aVdanidap22
p1434
aVthebluesharpie
p1435
aVjphillips1975
p1436
aVred_lambda
p1437
aVRayRay17
p1438
aVRuleroftheblind
p1439
aVmilk_a_wat
p1440
aVPublius0
p1441
aVkerizzle
p1442
aVams2000
p1443
aVawxomecross514
p1444
aVTehCourtJester
p1445
aVSEX_LIES_AUDIOTAPE
p1446
aVdeejack
p1447
aVlosermedia
p1448
aVmercrae
p1449
aVdaevonn09
p1450
aVGlioblaster
p1451
aVDairyOnMyBoots
p1452
aVkess0078
p1453
aVSamIsSexah
p1454
aVFuckSunshine
p1455
aVKeeperEUSC
p1456
aVOudamon
p1457
aVstokesthekid
p1458
aVactivitus
p1459
aVtobygee
p1460
aVOne_Hit-Combo
p1461
aVgottrawn
p1462
aVGetDisowned
p1463
aVdjmevans
p1464
aVashuri2
p1465
aVjustaMOMonreddit
p1466
aVmonsterunderthebed
p1467
aVIArePoor
p1468
aVbluehazed
p1469
aVShyShinobi
p1470
aV_silentheartsong
p1471
aVShrumples1997
p1472
aVmakeupthrowaway
p1473
aVSirPoBrinkman
p1474
aVReneeB
p1475
aVTheRecycleBin
p1476
aVKrissp
p1477
aVwhat_the_heil
p1478
aVbanananame
p1479
aVnewredditer2011
p1480
aVgive_this_one_a_go
p1481
aVbuffs37
p1482
aVproudandshamed
p1483
aVsimplynox
p1484
aVthrowaway19888
p1485
aVMattOnADinosaur
p1486
aVntesla1
p1487
aVMsquire
p1488
aVpatmagic
p1489
aVdebracat
p1490
aVcoldsandovercoats
p1491
aVandreareneeA
p1492
aVJohnSingularity
p1493
aVSisterRayVU
p1494
aVStarTrekStoner
p1495
aVcementsocks
p1496
aVtiffables
p1497
aVpuddems
p1498
aVpbrigh
p1499
aVMikoRiko
p1500
aVEye8urBurrito
p1501
aViamtheriver
p1502
aVMr_Spoon
p1503
aVkittycollar
p1504
aVnectarprotector
p1505
aVChuck_Finnley
p1506
aVMaloVolpe
p1507
aVrobsawesum
p1508
aVtigers12
p1509
aVTroll101Catz
p1510
aVvi1987
p1511
aVSaeka
p1512
aVArcadiaBailey
p1513
aVreplicasex
p1514
aVBurritoDevice
p1515
aVvisionaryrabbit
p1516
aVYayNoMoreLurking
p1517
aVdak0tah
p1518
aVautumnchibi
p1519
aVcandyapple08
p1520
aVfreakalicious_mn
p1521
aVkeanuisjesus
p1522
aVTyl3rDurd3n
p1523
aVSith_Empire
p1524
aVcarynlarsen
p1525
aVonbrkenwings
p1526
aVraydinn
p1527
aVstarshyne83
p1528
aVkyrobs
p1529
aVDiggitred
p1530
aVCawstewow
p1531
aVCjaxlyn
p1532
aVBallerinaBonzai
p1533
aVAlacar
p1534
aVKruziikDovahkiin
p1535
aVRDTa
p1536
aVlinford86
p1537
aVdc2040
p1538
aVBlack_Lace_and_Butts
p1539
aVFlessen0
p1540
aVMishiiee
p1541
aVRalphMullin
p1542
aVrealbuddha
p1543
aVRosyGraymalkin
p1544
aVmoogle516
p1545
aVwatchtowerwolf
p1546
aVMichaelFay
p1547
aVjestert26
p1548
aVCaffeinewriter
p1549
aVakmlr
p1550
aVrkinghrsppl
p1551
aVDoubleup
p1552
aVMikkee
p1553
aVEinarth
p1554
aVjunior92
p1555
aVCasstraitor
p1556
aVXplatinumXpixeyX
p1557
aVfin4lz3r0
p1558
aVspineapples
p1559
aVanotherred
p1560
aVMaoThatHurt
p1561
aVhogancatalyst
p1562
aVmeowmeowkins
p1563
aVTheDreadGazeebo
p1564
aVtheassassinTC
p1565
aVhebesphalmologist
p1566
aVRainbowStar
p1567
aVsandmyth
p1568
aVAnduh
p1569
aVToliver182
p1570
aVwoyervunit
p1571
aVlaurenashley91
p1572
aVMushbroom
p1573
aVdarkangelle
p1574
aVStartingOverFresh
p1575
aVMotoguy985
p1576
aVjtown465
p1577
aVGrimDeceiver
p1578
aVjedwin7
p1579
aVaSnuggletummie
p1580
aVonionsforeyes
p1581
aVIwouldlikeanactofza
p1582
aVhoplessone
p1583
aVsahraehmmz
p1584
aVineedfoodzplz
p1585
aVPand0rah
p1586
aVFaaln
p1587
aVfreakwastaken
p1588
aVTommyTenToes
p1589
aVarkook
p1590
aVawesoMetrical
p1591
aVthrutheforest
p1592
aVZahel
p1593
aVlljkotaru
p1594
aVtelepathetic_monkey
p1595
aVnamebrand
p1596
aVnothungryifudonteat
p1597
aVmeljwitz
p1598
aVsimple-green
p1599
aVgnobytivarg
p1600
aVreverserain
p1601
aVBarry_Wexler
p1602
aVmllylmn
p1603
aVtkpower
p1604
aVLipsLikeMorphyne
p1605
aVvethan
p1606
aVSomeWebGuy
p1607
aVextrachrispy
p1608
aVmoonkistforlife
p1609
aVQuetz23
p1610
aVItismeHODOR
p1611
aVShinChan101
p1612
aVWhoJahBless
p1613
aVswade22789
p1614
aVSingleMommy87
p1615
aVmonkey1987
p1616
aVMetal-Phoenix
p1617
aVKarusune
p1618
aVgracefulwing
p1619
aVDuitseMusikant
p1620
aVidealdebate
p1621
aVThayet
p1622
aVabscando
p1623
aVNot_Mitch
p1624
aVnbgryusan
p1625
aVthekutterback
p1626
aVXalwine
p1627
aVsincerelymoi
p1628
aVCmdr_Taw
p1629
aVanointednonsense
p1630
aVsticpixie
p1631
aVEzechiel1
p1632
aVnatscigirl
p1633
aVjanell_gagnon
p1634
aVKerdek
p1635
aVMomof4redheads
p1636
aVFirmerFilly
p1637
aVsongandsilence
p1638
aVnemisis54
p1639
aVjlking3
p1640
aVkevinwfick90
p1641
aVPineapplexplorer
p1642
aVColorado222
p1643
aValiveironically
p1644
aVjohnuala
p1645
aVDejashebases
p1646
aVundeclared1744
p1647
aVgrooveboy101
p1648
aVhophopsbarley
p1649
aVthe_viper
p1650
aVkyak12
p1651
aVdelyryum
p1652
aVtrisha_0811
p1653
aVAthiestCowboy
p1654
aVhello_There17
p1655
aVMadjawa
p1656
aVMarcianTobay
p1657
aVvictorcruz977
p1658
aVsavemebarryyy
p1659
aVconstantgardener
p1660
aVCoke0
p1661
aVknotonce
p1662
aVPlan9Channel7
p1663
aVPlazzmiK
p1664
aVsheilathen
p1665
aVyourlilcowgirl
p1666
aVsupershwee
p1667
aVDeTrueSnyder
p1668
aVarielsncsy
p1669
aVgoldenwookieechild
p1670
aVsuckstobepeople
p1671
aVhotboxing101
p1672
aVI_can_see_you
p1673
aVjfkk
p1674
aVNeverLucky
p1675
aVZombiemold
p1676
aVAshamedForDoingThis
p1677
aVPnpp1817
p1678
aVdangersteveover
p1679
aVTheRealTaryn
p1680
aVILoveFirefly
p1681
aVmonkeyman947
p1682
aVSleepingBeauty2180
p1683
aVjohn_vcu
p1684
aVidogiam
p1685
aVasouthernsun
p1686
aVYoungSerious
p1687
aVSophs_dad
p1688
aVSilvioManuel
p1689
aVmuddyh2o
p1690
aVhiggles5
p1691
aVohem
p1692
aVmrMadKing
p1693
aVSuperBrownBro
p1694
aVAK40Sarah
p1695
aVdarthoptimus
p1696
aVSomewhatMystia
p1697
aVmotob751
p1698
aVHamburglary
p1699
aVpeavey269
p1700
aVwnbaloll
p1701
aVthursdaye
p1702
aVmirlonger
p1703
aVpooncartercash
p1704
aVscbryant
p1705
aVgoldenbear_
p1706
aVheyyoudontsaythat
p1707
aVzombisaurusrex
p1708
aVPhysicsGirl
p1709
aVnottsoathletic
p1710
aVleena1004
p1711
aVZeis
p1712
aVAnder1ap
p1713
aVModaru
p1714
aVletroller
p1715
aVchristofrawr
p1716
aVkrizzledizzle
p1717
aV4xCharmed
p1718
aVgingerdoo
p1719
aVdarwin57
p1720
aVPOTEMrx
p1721
aVgoddamnit_ted
p1722
aVfrizzyburr
p1723
aVherrokatie
p1724
aVhidradenitis
p1725
aValbinotron
p1726
aVeaseintoit
p1727
aVtruthspeakstwice
p1728
aVrikkums
p1729
aVPizza___Throwaway123
p1730
aVpungellin
p1731
aVdoozerman
p1732
aVProjectile_Muffin
p1733
aVBuffatron
p1734
aVimaguyandiwantagirl
p1735
aVShludleDoodle
p1736
aVmayx
p1737
aVsalmonerd202
p1738
aVmillsman163
p1739
aVramynoodles
p1740
aVperjunk
p1741
aVheyitsthisguy
p1742
aVHardKoreHero
p1743
aVcoffeegirl27
p1744
aVSCATTRON
p1745
aVflyangel2478
p1746
aVthechameleonnn
p1747
aVsnellvillemelvin
p1748
aVoneir0naut0
p1749
aVkubarotfl
p1750
aVDOMOxHAX
p1751
aVUkuleleNoGood
p1752
aVjuggalettagurl
p1753
aVitsaghostagain
p1754
aVksdsim
p1755
aVCreepyCoyote
p1756
aVenderwigout
p1757
aVthenerdal
p1758
aVElliotMontague
p1759
aVrelentlessrobot
p1760
aVSidyBoy13
p1761
aVpizza991
p1762
aVshehulk13
p1763
aVtacohell
p1764
aVStarlurker
p1765
aVArmouredblood
p1766
aVSpartan021
p1767
aVelfinwizard
p1768
aVIashoggoth
p1769
aVPink401k
p1770
aVkar-re
p1771
aVmsnicecat
p1772
aVStyxFish
p1773
aVkj658343
p1774
aVbutterydelight
p1775
aVvivi767
p1776
aVdjgizmo
p1777
aVPregnant_and_hungry
p1778
aVToxikk
p1779
aVdeb4te
p1780
aVCreevildead
p1781
aVadnamajean
p1782
aVnicolslaw
p1783
aVmvs11
p1784
aVdrews2012
p1785
aVAnnabelise
p1786
aVSackomatic
p1787
aVmcavopol
p1788
aVzephris
p1789
aVborg484
p1790
aVdimestorehood
p1791
aVjimli420
p1792
aVthrowaway-___
p1793
aVsingledad22601
p1794
aVEnraged_Walrus
p1795
aVnurse2067
p1796
aVthisisvienna
p1797
aVcaroline_apathy
p1798
aVcontrolZ
p1799
aVQuadrius
p1800
aVkullus
p1801
aVmoosebot
p1802
aVbabababigian
p1803
aVcwlippincott
p1804
aVRavyn82
p1805
aVkateluvscoffee
p1806
aVaAntelope
p1807
aVDragoon0309
p1808
aVrorysmom1
p1809
aVbrickoftr00th
p1810
aVcheesesquirt4
p1811
aVSerdewerde
p1812
aVLoveyoutwice
p1813
aVDoctorelectricwisdom
p1814
aVselbeh
p1815
aVerinmadams
p1816
aVSaffronWhiteGreen
p1817
aVFlynnWhite
p1818
aVstreetfighter178
p1819
aVsmonz3
p1820
aVNatelieOne
p1821
aVmedic216
p1822
aVMommyof4girls
p1823
aVCorpusCaveman
p1824
aVTotesmcgotes702
p1825
aVnferguson98
p1826
aVdeimosian
p1827
aVjennyinstereo
p1828
aVSpinks
p1829
aVNickSProud
p1830
aVcaerul
p1831
aVW1GG3R
p1832
aVgrossboss
p1833
aVDer_Erlkonig
p1834
aVImpreza91
p1835
aVmegameg
p1836
aVJustWantSomePizza
p1837
aVexplikit
p1838
aVkcoop91
p1839
aVhungry_lurker_sad_gf
p1840
aVivanbco
p1841
aVTreesHateCoughing
p1842
aVTegaNaft
p1843
aVNapTimeAllTheTime
p1844
aVSafria
p1845
aVwizardfingers
p1846
aVmcdonaldsdick
p1847
aVdjpedrop
p1848
aVjjr1982
p1849
aVwarzero
p1850
aVtehbo0tab3gga
p1851
aVjorson
p1852
aVjustanassembler
p1853
aVhitno2004
p1854
aVthrowaway619
p1855
aVbclark2137
p1856
aVsafari253
p1857
aV3Taylors
p1858
aVROTP
p1859
aVquidam08
p1860
aVspazure
p1861
aVunluckyguy2_0
p1862
aVgertie53
p1863
aVloxias44
p1864
aVBearjewbacca
p1865
aVphasecode
p1866
aVblahsappystuff
p1867
aVdraco619
p1868
aVheifergrl1
p1869
aVCroxxie
p1870
aVduvalrn
p1871
aVcarcinom_a
p1872
aVscarymonsters85
p1873
aVcadderly09
p1874
aVpurplepillowmonsters
p1875
aVelaine_wowza
p1876
aVmisterbuckets
p1877
aVlulz1337
p1878
aVzerust
p1879
aVSanctusorium
p1880
aVbafoonwitaspoon
p1881
aVDan_K_Industries
p1882
aVUltimaac0
p1883
aVjpullman813
p1884
aVarms_of_the_beloved
p1885
aVVagimas
p1886
aVthelandryhat
p1887
aVtx10gold
p1888
aVmj1176
p1889
aVwaterbomb
p1890
aVryoshi
p1891
aVJen159
p1892
aVkillinmesmalls
p1893
aVnephiroth
p1894
aVEpicMuppet
p1895
aVussoldier239
p1896
aVredcoffecup
p1897
aVSlowly_BillCosby
p1898
aVWrathicus
p1899
aVCaremid
p1900
aVhoustonflies
p1901
aVtulsapuppy
p1902
aVkathy62
p1903
aVMrMischief0220
p1904
aVgdf72295
p1905
aVwaycheck
p1906
aVpurplebootyfox
p1907
aVRiffy
p1908
aVDPT2014
p1909
aVChiSpurger
p1910
aVmeatbawlofdoom
p1911
aVbrokecollegekid13456
p1912
aVTheCr0wned
p1913
aVNewToUni
p1914
aVvveksuvarna
p1915
aVenhancedtrivia
p1916
aVSkwishums
p1917
aVkalikillyou
p1918
aVNnyy
p1919
aVmrroflpwn
p1920
aVsds554
p1921
aVThe_Smooth_Mexican
p1922
aVReactorofR
p1923
aVSnides05
p1924
aVTiabaybee19
p1925
aVblizake
p1926
aVKegsWithLegs
p1927
aVArizona_Dardonelles
p1928
aVbutteredpotatoman
p1929
aVdemon8rix
p1930
aVtwobadfeet
p1931
aVMidlothianer
p1932
aVthevanillacupcake
p1933
aVdetective_donkey_dic
p1934
aVsocalstoner92
p1935
aVThrowAway01890
p1936
aVblindpringles
p1937
aVDGerbil
p1938
aVBabaGurGur
p1939
aVPreggoMcGee
p1940
aVradical_ironic_foe
p1941
aVsuperthrust
p1942
aVForteEX
p1943
aVcherboi
p1944
aVslaughterhome
p1945
aVAniBastion
p1946
aVmidnightwalrus
p1947
aVLibrarianPony
p1948
aVhiho20
p1949
aValyssaraeholden
p1950
aVaaa801
p1951
aVstonerd
p1952
aVf_monk
p1953
aVkrushmatic
p1954
aVBlastdouble59
p1955
aVDeleccles
p1956
aVgirliegrrrl
p1957
aVCloudDrunk
p1958
aVdamianm
p1959
aVsalsgirl0
p1960
aVpKreate
p1961
aVthenewguy729
p1962
aVMostDrunkest
p1963
aVAnon101248
p1964
aVrojojojo
p1965
aVPhyco_candy
p1966
aVrustyberry
p1967
aVTomBV
p1968
aVGingerSauce
p1969
aVBROtato_
p1970
aVFratriarchofMorgan
p1971
aVRozo-D
p1972
aVkoots55
p1973
aVTrioxin
p1974
aVornascien
p1975
aVAtomicJim
p1976
aVamericanbred
p1977
aVTatertotattack
p1978
aVCSULBHistoryStudent
p1979
aVCLU7CH
p1980
aVlepemetus
p1981
aVIts_Be_A_Spork
p1982
aVRufian2113
p1983
aVumhai
p1984
aVSofistication
p1985
aVbenny8897
p1986
aVEvilhenchman
p1987
aVhmmnotsure
p1988
aVbobafoot17
p1989
aVloser_
p1990
aVhavingshittyday
p1991
aVwizredskin
p1992
aVRhymesWithEloquent
p1993
aVEmmaleep
p1994
aVDrBoobian
p1995
aVDarr3njack5on
p1996
aVfuckabees
p1997
aVDarkinu2011
p1998
aVtekno45
p1999
aVonewhosighs
p2000
aVtspike
p2001
aVimalwaysjustme
p2002
aVcahaseler
p2003
aVLovableContrarian
p2004
aVpsychedelicjournal
p2005
aVsarah5121
p2006
aVgiants707
p2007
aVechelonFox
p2008
aVjakefalardeau
p2009
aVAlphaTJH
p2010
aVHawaii_Prince
p2011
aVwelackscience
p2012
aVBacong
p2013
aVLiamHubbard
p2014
aVbutthash420
p2015
aVBeautyBalls
p2016
aVrobomims
p2017
aVManiacalLaugh
p2018
aVMeSoCornyyy
p2019
aVkingxanadu
p2020
aVleonhardtz50
p2021
aVSanhael
p2022
aVBawbGnarles
p2023
aVAH_Cheb
p2024
aVsunsetbayus
p2025
aVAlexUrbanec
p2026
aVlemonassassin
p2027
aVDietPepsi20oz
p2028
aVCatLover91
p2029
aVthat_seattle_blue
p2030
aVblunatic
p2031
aVNoTimeLikeToday
p2032
aVAwwik
p2033
aVferpderp29
p2034
aVKlausCin
p2035
aVitscrowdedinhere
p2036
aVPeetrius
p2037
aVSuirou
p2038
aVgarfieldcompton
p2039
aVSekter89
p2040
aVTrueXuman
p2041
aVkujack
p2042
aV216heightser
p2043
aVSyraMira
p2044
aVcidzeraus
p2045
aVbonerbandit
p2046
aVMobster96
p2047
aVala06
p2048
aVFlesh_Odium
p2049
aVcambionic
p2050
aVTheBravetoaster
p2051
aVpopota
p2052
aVsugardrop
p2053
aVPennSullivan
p2054
aVdrinkthebleach
p2055
aVLoganhxc
p2056
aVLayzeLes
p2057
aVroachellie81
p2058
aVbigsol81
p2059
aVidontknowwhereelse
p2060
aVBeifong
p2061
aVChiramongus
p2062
aVJPenta
p2063
aVMkap3334
p2064
aVtastemycookie
p2065
aVLOVEbritt
p2066
aVBenRiceM
p2067
aVObbyDent
p2068
aVBlassyBlas
p2069
aVanyquestions
p2070
aVjrk190
p2071
aVoprx
p2072
aVSilchasRuin
p2073
aVlittle_twerp
p2074
aVjustinzagar
p2075
aVDropoutCollective
p2076
aVbriansays
p2077
aVDustinm16
p2078
aVSpandexisbad
p2079
aVRockLobster89
p2080
aVbburchibanez
p2081
aVMajimanidoo
p2082
aVInebb
p2083
aVsweetmommy
p2084
aVlinda011
p2085
aVwastingawayinGA
p2086
aVcrudapples
p2087
aVwadeabaldwin
p2088
aVpleasefeedme
p2089
aVHypotetical_Snowmen
p2090
aVironosora
p2091
aVpreilly72
p2092
aVsmokeydesperado
p2093
aVbilly_buckweed
p2094
aVNarconis
p2095
aVReallyGoodAdvice
p2096
aVbravelittletoaster87
p2097
aVNeedSomeLuck
p2098
aVthefirstjoe
p2099
aVcrypticmeth
p2100
aVaSpanishGoat
p2101
aVthrowaway121518
p2102
aVithicus2
p2103
aVCallofTraviss
p2104
aVczuzak
p2105
aVPurpleSnow
p2106
aVronsbigwig
p2107
aVFireFoxMcCloud
p2108
aVTim9091
p2109
aVcoheedsmonstar
p2110
aVdarrylsandwich
p2111
aVwdouglas37
p2112
aVdalsgaard
p2113
aVdawsonhunter
p2114
aVSnackchez
p2115
aValambert212
p2116
aVpiranhagus
p2117
aVmanmat100
p2118
aVuncamad
p2119
aVLolalawless1
p2120
aVPybr0
p2121
aVWhyArentYouNMyOffice
p2122
aVUlricVonDicktenstein
p2123
aVtrotski
p2124
aVdanbri28
p2125
aVOneSalvie
p2126
aVOthrondir
p2127
aVWarmnewbones
p2128
aVt__mhjr
p2129
aVfirefighter190
p2130
aVWestDakota
p2131
aVjaredburstppc
p2132
aVnotandrea
p2133
aVAidenMD
p2134
aVAreYouReadyToReddit
p2135
aVdymphna_Rose
p2136
aVVote_Gravel
p2137
aVP38sheep
p2138
aVBi_pride13
p2139
aVMHerndz
p2140
aVQueenby
p2141
aVSirRamen
p2142
aVjrhbell
p2143
aVBrilliantBen
p2144
aVLtRift
p2145
aVQRSTUV3
p2146
aVmichel34
p2147
aVkentoss
p2148
aVhappy2pester
p2149
aVggsly
p2150
aVtheriddler41
p2151
aVfamilylife42
p2152
aVMagikarpUsed_Splash
p2153
aVSkyCaptainStarr
p2154
aVTheNamesIrrelevant
p2155
aVtimorousme
p2156
aVMaddibon
p2157
aVrdigianni
p2158
aVfrankslittlebeauties
p2159
aVJewBurger
p2160
aVSalemkylar
p2161
aVlamefest89
p2162
aV_redman
p2163
aVonesunnyday
p2164
aVJoshatthecarwash
p2165
aVthefatgod
p2166
aVgagamo
p2167
aVdirtmouth
p2168
aValoneandhungry
p2169
aVhelloder2012
p2170
aVjae31670
p2171
aVwhosthat
p2172
aVabedcoolcoolcool
p2173
aVSpectacularJack
p2174
aVJHanleyRed
p2175
aVleafeator
p2176
aVpsychedelicvelocity
p2177
aVSuffistication
p2178
aVNothingMoreAmazing
p2179
aVkittix
p2180
aVanonymister1128
p2181
aVJensmom50225
p2182
aVDisplacedLeprechaun
p2183
aVsoulbash
p2184
aVpointy-duck-fart
p2185
aVdc218
p2186
aVstationhollow
p2187
aVdeadhaze35
p2188
aVDidntCatchMuch
p2189
aVIndiePrincess
p2190
aVFembotty
p2191
aVHarryBlotter
p2192
aVeddie14126
p2193
aVMickySFINE
p2194
aVThe_Peace_Maker
p2195
aVseascaped
p2196
aVlrruben
p2197
aVtreebot
p2198
aValishanh93
p2199
aVCXLVII
p2200
aVLeRedditReferee
p2201
aVMRdaBakkle
p2202
aVPibbxtreme
p2203
aVshufflingmulligan
p2204
aVhungrycorpsteacher
p2205
aVkittykatkisses
p2206
aVinfuriated_walmart
p2207
aVViggerous
p2208
aVAmrasi
p2209
aVapplederringer
p2210
aVnnackle
p2211
aViGunKissYou
p2212
aVburrbit8b
p2213
aVMoxypants
p2214
aVFuturedogwalker
p2215
aVandy_gbert
p2216
aVstardled
p2217
aVHelloMarcOso
p2218
aVCrustyCrabbyLegs
p2219
aVMatt24138
p2220
aVemmuppet
p2221
aVFearlessjay
p2222
aVstormclaw11
p2223
aVjamesf797
p2224
aVdusichka
p2225
aVlilbro
p2226
aVLATViALAURA
p2227
aVmoon_nazi
p2228
aVpuraasneira
p2229
aVpaczkitten
p2230
aVWordwench
p2231
aViMack87
p2232
aVImponaut
p2233
aVincognito_squirrel
p2234
aVlostincollege
p2235
aVEastToast
p2236
aVnicksknock
p2237
aVCatnipCotters
p2238
aVhungrystudent50948
p2239
aVOvarianBarbarian
p2240
aVRageMonkey262
p2241
aVbozowantfood
p2242
aVbeanza
p2243
aVcptsham
p2244
aVjnorthup0620
p2245
aVaceagle93
p2246
aVZeBandit
p2247
aVsilverpixiefly
p2248
aVRaiden1312
p2249
aViTwi
p2250
aVbgmrk
p2251
aVDarcDiscordia
p2252
aVshellymitsy
p2253
aVcutthroatpie_new
p2254
aVFears2Phobias
p2255
aVandersoncoopersboner
p2256
aVjreppa
p2257
aVzerovalue0
p2258
aVitsamoreh
p2259
aVold_journal
p2260
aVArielion
p2261
aVczerniana
p2262
aVtarheelghost
p2263
aVqwertyasdfg123456
p2264
aVHULKONREDDIT
p2265
aVLuh-Luh-Luh-Louie
p2266
aVIndeedInNeedpuhpleas
p2267
aVscebm92
p2268
aVvisionz
p2269
aVthepiranha
p2270
aVSissyE04
p2271
aVlive4jesus
p2272
aVdman8000
p2273
aVacostlyspirit
p2274
aVkmack
p2275
aVomgahpip
p2276
aVRobotBuddha
p2277
aVOvermind172
p2278
aVeira_
p2279
aVnotanothercirclejerk
p2280
aVTotempants
p2281
aVleangle
p2282
aVSafestSafe
p2283
aVbrokenprodigy114
p2284
aVBaileeBloodlust
p2285
aVtheoneandonlynox
p2286
aVtulipsdon
p2287
aVfiestymama77
p2288
aVTwinCties001
p2289
aVrequiredreading11
p2290
aVREMbomb
p2291
aVfurbix
p2292
aVSmurf06
p2293
aVsoutherngent13
p2294
aVclairemarch
p2295
aVcrazedandabused
p2296
aVSDMarine
p2297
aVEncounterJake
p2298
aVkillymays
p2299
aVdeeter16323
p2300
aVchmpdog
p2301
aVKyteno
p2302
aVha_rumph
p2303
aVMom_DadPlus4
p2304
aVjonkdavis
p2305
aVNotoriousHaze
p2306
aVFierce_Fox
p2307
aVphenomenos
p2308
aVBlaineMissouri
p2309
aViwannababy
p2310
aVEdgarthefish
p2311
aViheartbaconsalt
p2312
aVpon_de_rring
p2313
aVforeverchamone
p2314
aVthrow81204
p2315
aVallieeilla
p2316
aVbeset_by_wanderlust
p2317
aVhungryindebt
p2318
aVJai_panda
p2319
aVphrozen1
p2320
aVlksd
p2321
aVrobotbuttsex
p2322
aVmacdrai
p2323
aVTesticleTophat
p2324
aVchantel_9
p2325
aVpandapat
p2326
aVGenital_Dropkick
p2327
aVDanderson78
p2328
aVzmesmer
p2329
aVGhostOfDonLaFontaine
p2330
aVxainthelimit
p2331
aVilikebluepens
p2332
aVnientara
p2333
aVObscureAgain
p2334
aVrockacessor
p2335
aVi_here
p2336
aVpoopdedoop
p2337
aValefnull
p2338
aVsandwiches_are_real
p2339
aVskoorbat
p2340
aVdabeeisme
p2341
aVJazzClutchKick
p2342
aVcarmenlrp
p2343
aVAbsintheHaze
p2344
aVughmothers
p2345
aVRapalla
p2346
aVrhiz0me
p2347
aVBluesmanfromthepast
p2348
aVinf4nticide
p2349
aVdmitche
p2350
aVelsieghost
p2351
aVportablefan
p2352
aVWhiskey_Joe
p2353
aVcrumcakes
p2354
aVascendingorder
p2355
aVCharlieWhoop
p2356
aVnyan_kitty1024
p2357
aVwendybyrdie
p2358
aVmrsdiederich
p2359
aVXelaIsPwn
p2360
aVpwhiller
p2361
aVgreen323
p2362
aVjmartin21
p2363
aVFryulator
p2364
aVk1llmewithaspork
p2365
aV122david
p2366
aVspacedout83
p2367
aVOnlyHero
p2368
aVThrowaway_Mark9
p2369
aVJackal115
p2370
aVGrazzette
p2371
aVzachthesquid
p2372
aVGiantRustyAnchor
p2373
aV7Nantis
p2374
aVLivewireg14
p2375
aVcupcakessss
p2376
aVmsm1ssy
p2377
aVfunctionalmass
p2378
aVRogue2166
p2379
aVOrangeKetchup
p2380
aVAnneal
p2381
aVhungrymom
p2382
aVlucky32
p2383
aVkhonsu
p2384
aVpotently-potable
p2385
aVtoolland
p2386
aVquinlan_wtf
p2387
aVarturh
p2388
aVTheBlueChocobo
p2389
aVjeconti
p2390
aVlost_in_ky
p2391
aVprofessordee
p2392
aVApeWithACellphone
p2393
aVfoxmakeba
p2394
aVmurp21
p2395
aVhungry4food
p2396
aVKeevtara
p2397
aVveertamizhan
p2398
aVwaffletoast
p2399
aVredditnoob15
p2400
aVXtaC23
p2401
aVhungryirishman
p2402
aVThe_Correctionist
p2403
aVpuffinmaster86
p2404
aVWittyWebHandle
p2405
aVstrif3
p2406
aVdrunkenmonkeybrigade
p2407
aVsibleyma
p2408
aVdionysus220
p2409
aVTheMoves
p2410
aVVyvanse
p2411
aVUrbano35
p2412
aVcomrade-cupcake
p2413
aVPsychochan
p2414
aVcmb3497
p2415
aVPumpkinpizza
p2416
aVlurklurklurkwonder
p2417
aVJamzicorn
p2418
aVlinuxauditor
p2419
aVthe_sweetest_fetus
p2420
aVcloverling
p2421
aVNomsfud
p2422
aVKattattacks
p2423
aVcleverusername404
p2424
aVJackKerdouc
p2425
aVWeapon_X94
p2426
aVlobad
p2427
aVgrimblegromble3
p2428
aVMagdaEss
p2429
aVajthesecond
p2430
aVRaeko
p2431
aVcsheely17
p2432
aVTheChineseHipster
p2433
aVblackowiak
p2434
aVSmokecan
p2435
aVstephen_stills
p2436
aVlilyrae
p2437
aVbrianmoon
p2438
aVAlliery
p2439
aVdidyouhearmekitten
p2440
aVGenghisKhan87
p2441
aVtali3sin
p2442
aVPostsCrapPuns
p2443
aVdr0idx
p2444
aVdave_stiles
p2445
aVgodissayingthistoyou
p2446
aVdeadport
p2447
aVsweetluc
p2448
aVxvaquilavx
p2449
aVOccamRager
p2450
aVRebelLion_HalfBrain
p2451
aVAllSkrewedUp
p2452
aVsome_weird_guy
p2453
aVEaeelil
p2454
aVllo64
p2455
aVSomeGuyWithABoner
p2456
aVdecandentandsymetric
p2457
aVthedragbible
p2458
aVCalmRoc
p2459
aVHEYSYOUSGUYS
p2460
aVJustAnotherPagan
p2461
aVStashigi
p2462
aVlove2fap
p2463
aVkshaw1125
p2464
aVghostleeone
p2465
aVvrane
p2466
aV-Magitek-Armor-
p2467
aVheartagram_ben
p2468
aVthewisestwise
p2469
aVsqueeky2
p2470
aVsputnik_
p2471
aVHollownebula
p2472
aVSpeaKeasYSKY
p2473
aVAridane
p2474
aVNotontelevision
p2475
aVdzack
p2476
aVhungry_irish_lass
p2477
aVletyourbeautyunfold
p2478
aVOld_Scratch1
p2479
aVmisty63
p2480
aVxpainisweaknessx
p2481
aVTricker1991
p2482
aVNd4Wd
p2483
aVnickgenova
p2484
aVDirtyMosoeTaint
p2485
aVbenjimt725
p2486
aVgrouperfish
p2487
aVandstuff
p2488
aVphobophobia
p2489
aVamcutro
p2490
aVAmpix0
p2491
aVsandrasko2
p2492
aVkman2015
p2493
aVengineeringENT
p2494
aVMikeBruski
p2495
aVtacodad
p2496
aVInGenUse
p2497
aVBreakGlassRevolution
p2498
aVjatoskep
p2499
aVdakay501
p2500
aVcalvinwylie
p2501
aVRelickey
p2502
aVThe_Nox
p2503
aVskychilde
p2504
aVhostilecarrot
p2505
aVroflolmaocatz
p2506
aVlittelbro14
p2507
aVihopeitsatimemachine
p2508
aVshameaway
p2509
aVCablefist
p2510
aVriob3
p2511
aVblackout517
p2512
aVD_mel_emm
p2513
aVZinjaNombie
p2514
aVbrainswho
p2515
aVdena65
p2516
aVsyntenic
p2517
aVThePotFarmer
p2518
aVcolorblindnick
p2519
aVSisyphusOfMorons
p2520
aVhungrystudents
p2521
aVjeffreydonger
p2522
aVEdifice_Complex
p2523
aVjmarita1
p2524
aVBigEasyBobcat
p2525
aVdarthnuri
p2526
aVwhowriter
p2527
aVjewlz_austin
p2528
aVbbbreaker
p2529
aVArkanoid0
p2530
aVGangrene
p2531
aVtwinklebeans
p2532
aVmx5miata
p2533
aVcourtnutty
p2534
aVTheMagicConch
p2535
aVzimpirate
p2536
aVMidnight_Aviator
p2537
aVMattGrubbTV
p2538
aViSmirinoff
p2539
aVHomelessKel
p2540
aVDerive1334
p2541
aVXtimmyX
p2542
aVProf_Mordarm
p2543
aVkb13733
p2544
aVKruger2147
p2545
aVdrawthings
p2546
aVsupergamerz
p2547
aVMyth_M3thod
p2548
aVSaranghae_sohee
p2549
aVmeeu
p2550
aVpizzaluver
p2551
aVSenor_Wilson
p2552
aVJaimeVenegas
p2553
aVbrokenchairs
p2554
aVMuchAndMore
p2555
aVThomasTheDankEngine
p2556
aVSt0len
p2557
aVlegalizeweedNhookers
p2558
aVFumblezz
p2559
aVcsmcangl
p2560
aVnot-doing-hw
p2561
aVtimhernandez
p2562
aVquestionthequestion
p2563
aVHorseLover91
p2564
aVsoberwhiledrunk
p2565
aVurasandwich
p2566
aVtiki456
p2567
aVsilvery_silver
p2568
aVfw7232
p2569
aVdivafrenchie
p2570
aVveterinarygopher
p2571
aVDoomedJanissary
p2572
aVlawliver
p2573
aVphxmommy
p2574
aVpeanutsforall
p2575
aVs0nicfreak
p2576
aVor_me_bender
p2577
aVsaoirse_22
p2578
aVlittlemisspixie
p2579
aVDallasAmigo
p2580
aVHailtheres
p2581
aVOutfoxes
p2582
aVMTDearing
p2583
aVtynosaur
p2584
aVbearvivant
p2585
aVxHumanity
p2586
aVallryuken
p2587
aVpreggers09
p2588
aVslarson802
p2589
aV20greenshades
p2590
aVSCFamof6
p2591
aVnom-de-reddit
p2592
aVsurfingservants
p2593
aVAnOrangeGent
p2594
aVboboagogo
p2595
aV95DC2
p2596
aVdeathbyramen
p2597
aVLoliSauce
p2598
aVSprgmr
p2599
aVAFunnyThing-
p2600
aVbraddletoad
p2601
aVSwarlley
p2602
aVdunnmyblunt
p2603
aVAboveTheClouds402
p2604
aVTenshik
p2605
aV124418609219
p2606
aVfuckevrythngabouthat
p2607
aVT3ph13
p2608
aVridingthewahmbulance
p2609
aVLatvoman
p2610
aVRBIX
p2611
aVBMcFall07
p2612
aVfunkaphant
p2613
aVsteventheman
p2614
aVcigaretteconnoisseur
p2615
aVRichardchambuhs
p2616
aVSkareymc
p2617
aVpapa_mog
p2618
aVdicastio
p2619
aVAlbert_PooBalls
p2620
aVBunnyShuffles
p2621
aVslaughterhouse6
p2622
aVmuffinmonk
p2623
aVill-learn-ya
p2624
aVBedBandit
p2625
aVFzzyWbls
p2626
aVstormtide311
p2627
aVmaximal_crazy
p2628
aVmagusg
p2629
aVpassiton1
p2630
aVcheshirecat76453
p2631
aVFetidFlowers
p2632
aVxlude22x
p2633
aVprostetnicjeltz
p2634
aVharry-yerawizard
p2635
aVAndrewMufasaaaa
p2636
aVGephoria
p2637
aVtyalah
p2638
aVMrBitterness
p2639
aVpowerbearden
p2640
aVFramingHips
p2641
aVjeram92
p2642
aVLuckyKelevra
p2643
aViammattstarkey
p2644
aVenjoi_uk
p2645
aVImissGA
p2646
aVpornoacc
p2647
aVnoflag
p2648
aVZB4F
p2649
aVheybigpancakes
p2650
aVtroll_fail
p2651
aVbocksofwine
p2652
aVCraigFL
p2653
aVHouseboy23
p2654
aVDelilah_Jones
p2655
aVMusika13
p2656
aVRobinadelmann
p2657
aVCatfactsdaily
p2658
aVnotthemama13
p2659
aVMaltMix
p2660
aVIllyrianKiller
p2661
aVKitsuneominous
p2662
aVi-ride-dragons
p2663
aVblubirdhvn
p2664
aVStux
p2665
aVhippymatt
p2666
aVpasano54
p2667
aVakystics
p2668
aVR3divid3r
p2669
aVKoolioKid
p2670
aVbvde85
p2671
aVAnpheus
p2672
aViwontthrowawaypizza
p2673
aVSushiForOne
p2674
aVstagecoach_jay
p2675
aVCaprious
p2676
aVhenley519
p2677
aVreflection700
p2678
aVpeeringwound
p2679
aVsoad3821
p2680
aVahhhhh11
p2681
aVBig_Easy42
p2682
aVJamesTurkey
p2683
aVilyxtina
p2684
aVRALBIN0
p2685
aVrhajing
p2686
aVmrsslowloris
p2687
aVDoctor_of_Recreation
p2688
aVmcj614
p2689
aVintentional_feeding
p2690
aVmrjack92
p2691
aVJenitalia42
p2692
aVPeterMacIrish
p2693
aVjayayeceeohbee
p2694
aVLaguna-Loire
p2695
aVgracefullyawkward
p2696
aVstartrekdentist
p2697
aVgrace613
p2698
aVzemily
p2699
aVheadlightsoff
p2700
aVdamndudewow
p2701
aVMatteosMommy
p2702
aVMrCheungSon
p2703
aVKnight203
p2704
aVelasticlove
p2705
aVKayRice
p2706
aVbeatabout
p2707
aVhive_worker
p2708
aVbigjakefhecake
p2709
aVFemmeFeeTail
p2710
aVBoyofHIIIGGGHH
p2711
aVstarvingglassblower
p2712
aVMaaronClopland
p2713
aVcrg78750
p2714
aVTyking
p2715
aVnannox3
p2716
aVnapaan
p2717
aVsknabc
p2718
aVkortirion_osgiliath
p2719
aVRelativityPudding
p2720
aVmistakebythecake
p2721
aVkryptonian_knight
p2722
aVhappywaffle
p2723
aVbaconpiex
p2724
aV0110110101101100
p2725
aVSacUp
p2726
aVloadedtomcat
p2727
aVSpecialCake
p2728
aVrawdoglife
p2729
aVhomeboymcgee
p2730
aVdoutlawjessejames
p2731
aVmeeshkapeesh
p2732
aVkingston_boss
p2733
aVweasler
p2734
aVTEYZO
p2735
aVtigerregjoe
p2736
aVfrom_twelfth_planet
p2737
aVCapricaSix66
p2738
aVbabygirl82
p2739
aVdonbvonb
p2740
aVtortnotes
p2741
aVgetthefuckinmybed
p2742
aV-notagirl-
p2743
aVgowlwolfe
p2744
aVdenalexa13a
p2745
aVxl_Ruthless_lx
p2746
aViLeeoh
p2747
aVkbiering
p2748
aVkmamrsr
p2749
aVThe_sly_kit
p2750
aVPanoply_of_Thrones
p2751
aVCamoHiddenDJ
p2752
aVDiego_UK
p2753
aVMrAgileBeast
p2754
aVdoinit4lulz
p2755
aVterriblemothra
p2756
aVRealHorrorShowLike
p2757
aVsamwisevimes
p2758
aVEshrinnhero
p2759
aVlogan101
p2760
aVTheGlassface
p2761
aVchairback
p2762
aVFrostatine
p2763
aVMalcaiah
p2764
aVfrogiigreen
p2765
aVpacker69
p2766
aVDenOfThieves
p2767
aVronkhalifa
p2768
aVmoatsmd
p2769
aVLivewirehf
p2770
aVpyratus
p2771
aVItsAgreatday2bealive
p2772
aVasia_kong
p2773
aVrhiesa
p2774
aVSykotik
p2775
aVOhpheliac
p2776
aVcrazyredhead87
p2777
aVimveryhungry
p2778
aVcldumas
p2779
aVelspazzz
p2780
aVHunniiBee
p2781
aVelastic-love
p2782
aVjamespweb
p2783
aVtheostorm
p2784
aVKkayne
p2785
aVLymeMN
p2786
aVSpagherica
p2787
aVPants_Bandit
p2788
aVButthole_Scientist
p2789
aVYupUhhuh
p2790
aVJetlinerX
p2791
aVswoledawg
p2792
aVIdahoSucks
p2793
aVdeuce54
p2794
aVconiferoustrees
p2795
aVskyholmes
p2796
aVcrcmrc
p2797
aVbraverywillfollow
p2798
aVwhatnameisntusedalre
p2799
aVjero2006
p2800
aVJoshybizzle
p2801
aVangryragtimer
p2802
aVphillysaxon
p2803
aVStarstryker
p2804
aVcherriblossom
p2805
aVroyalalez
p2806
aVryancarpenter
p2807
aVre_mix
p2808
aVstrawber
p2809
aVflyenangel
p2810
aVbradhunt5
p2811
aVloganlulz
p2812
aVlovelythots
p2813
aVGaryCarver
p2814
aVSquidlor009
p2815
aVnevertoo
p2816
aVnickstatus
p2817
aVedgeofseventeen
p2818
aVLookRedditNoHands
p2819
aVmdterrapins
p2820
aVTeflon_McDermit
p2821
aVjanlin
p2822
aVseanbyram
p2823
aVrebekkahkins
p2824
aVTheMinks
p2825
aVOatmealOnline
p2826
aVhalounit
p2827
aViamcosmos
p2828
aVRRSignalMaintainer
p2829
aVa-wes-ome555
p2830
aVdrslg
p2831
aVPresidentTylerDurden
p2832
aVnjoy101
p2833
aVthefreq
p2834
aVHeisenbergWhitman
p2835
aVTeHMetronomE
p2836
aVAffe48564
p2837
aVCfkid94
p2838
aVSinderelly
p2839
aVrobeth
p2840
aVoops_crash
p2841
aVphosoup
p2842
aVnoperfectplace
p2843
aVwinfred
p2844
aVbowling-beauty
p2845
aVanb1990
p2846
aVovers33r
p2847
aVDrawForFood
p2848
aViLiekOwls
p2849
aVHisGreal
p2850
aVaboitic
p2851
aVLessThanLaura
p2852
aVmamatofour
p2853
aVmrshll
p2854
aVZileto
p2855
aVPlaidipus
p2856
aVXeropoint
p2857
aVunfinator
p2858
aVdysonlogos
p2859
aVcathilarie
p2860
aVSludge_Hound
p2861
aVUltimetalhead
p2862
aVdutchess_elm
p2863
aVspringwood
p2864
aVdaddeler
p2865
aVlaceyisreallyrad
p2866
aVLarsPlays
p2867
aVinducingnostalgianow
p2868
aV50inshape
p2869
aVtextish
p2870
aVLinnea1972
p2871
aVopinjonated
p2872
aVPudd1nPants
p2873
aVpacweebles
p2874
aVVinnysin
p2875
aVDuckMasterFlexxx
p2876
aVnoirefeeling
p2877
aVtapedeckghost
p2878
aVTheCrimsonArmada
p2879
aVTekken2
p2880
aVCPKsJimboslice
p2881
aVTiredWorkerBee
p2882
aVsuckyswimmer
p2883
aVmo578135
p2884
aVTomtom041890
p2885
aVjonnyg22
p2886
aVskirtgirlie
p2887
aVpittsburghpirate
p2888
aVrhythmmlove
p2889
aVshnn1984
p2890
aVxAbaddon
p2891
aVthenikmarr
p2892
aVheartachetickles
p2893
aVComputersAreFun
p2894
aVWowFantasticBaby
p2895
aVkamajo8991
p2896
aVPpflounder
p2897
aVOreoOrigins
p2898
aVhiyaninja
p2899
aVthrowthisfuckaway
p2900
aV3xdot_3xdash_3xdot
p2901
aVComputer_Baby
p2902
aVopgumby
p2903
aVMilkman41092
p2904
aVIceCreamIsGood
p2905
aVcinemaesque
p2906
aVallenfaigao
p2907
aVapcolleen
p2908
aVsweetcherry88
p2909
aVTheLegionnaire
p2910
aVHernandariguez
p2911
aVConflux
p2912
aVmomto4boys84
p2913
aVbstewart88
p2914
aVNateNasty
p2915
aVDevyDecay
p2916
aVlol2173
p2917
aVkellswastaken
p2918
aVBysanity
p2919
aVthedirtdog
p2920
aVInstz
p2921
aVnaymlis
p2922
aVwuu
p2923
aVcole1209
p2924
aVHungry-Hippo-
p2925
aVUnderoathftw
p2926
aVPresidentGaryJohnson
p2927
aVdamnyousave
p2928
aVYouCanCallMeLiz
p2929
aVpyrex222
p2930
aVhonor646
p2931
aV8245a
p2932
aVdeadparrotx
p2933
aVmcollins999
p2934
aVMyLittleBaconBit
p2935
aVxSquires
p2936
aVA_RUDE_CAT
p2937
aVrose_tyler_fan
p2938
aVblameitontheaaambien
p2939
aVShiggityShank
p2940
aVmtrumantigeru
p2941
aVmikesam37
p2942
aVWoffyCoffee
p2943
aVcupcake65
p2944
aVforeveraskeptic
p2945
aVqwertyuiop1024
p2946
aVjessiebug
p2947
aVmarco8_goal
p2948
aVsofkt
p2949
aVmizozozowo
p2950
aVlisagal321
p2951
aVtrickedoutdavid
p2952
aVrdjslittleslut
p2953
aVAttractiveMeat
p2954
aVMsVodkaForBreakfast
p2955
aVVolkgovella
p2956
aVDrshibby
p2957
aVRaven_Madd
p2958
aVGetintothegame
p2959
aVbarehare
p2960
aVNathanLegend850
p2961
aVn_pazz_420
p2962
aV4xmasbro
p2963
aVbeanieb
p2964
aVpartytimeusa420
p2965
aVyawnlikeyoumeanit
p2966
aVWaycho
p2967
aVMartin6040
p2968
aVladyluck1984
p2969
aVawana56
p2970
aVDextrome92
p2971
aVlukecage43
p2972
aVPringly
p2973
aVgreenskee
p2974
aVadamantium_buster
p2975
aVDrunkenPopTart
p2976
aVaparke41
p2977
aVHESSlAN
p2978
aVSharptastic
p2979
aVbrinkofhumor
p2980
aVAlien_Powered
p2981
aVslagathor51
p2982
aVzanthoroctu
p2983
aVStarcraftPizza
p2984
aVSpeaker4theDead
p2985
aVCpbabes
p2986
aVexodusmachine
p2987
aVevaporated
p2988
aVjaques34
p2989
aVibanghookers94
p2990
aVj14vv
p2991
aVlatenightartist
p2992
aVambertigereyes
p2993
aVTheGrasstheSteakAte
p2994
aVJDBar1215
p2995
aVjack_porter
p2996
aVscoobydo0
p2997
aVracheal1991
p2998
aVCawkii
p2999
aVj41d3n
p3000
aVnickx37
p3001
aVbeardykins
p3002
aVgammarayzzz
p3003
aVaProbl3m
p3004
aVsuperman19703
p3005
aVxsizo
p3006
aVKinematic9
p3007
aV-idk
p3008
aVallisonphillips41892
p3009
aVCrazypenguine
p3010
aVEddieTheHead42
p3011
aVsniperlotte
p3012
aVph0bos
p3013
aVkeebster83
p3014
aVccarr77
p3015
aVthrowawaythisjune
p3016
aVkylenobel
p3017
aVgem37
p3018
aVshavingourbeards
p3019
aVErkmon
p3020
aVJoEsMhOe
p3021
aVCaliToast
p3022
aVtannermorgan
p3023
aVyarnto
p3024
aVJingolo
p3025
aVhungrydad
p3026
aVsterling_mallory
p3027
aVSRowan33
p3028
aVSm314
p3029
aVrgundran87
p3030
aVbucknakid14
p3031
aVMarcusParadis
p3032
aVfletchdoll
p3033
aVkeysersozeweall
p3034
aVANAL_POPCORN
p3035
aVleddmtsu
p3036
aVlove4mydaughter
p3037
aVzattack
p3038
aVjasonmm1979
p3039
aVchrisimmunity
p3040
aVDanjanon
p3041
aVMusicmonsta
p3042
aVFhanky
p3043
aVQQsomeMore
p3044
aVcoranai
p3045
aVTheKidWantsMilk
p3046
aVsplashdamage
p3047
aVpregosaurusrex
p3048
aVfive_second_rule
p3049
aVBetnyRoseBud
p3050
aVShorei
p3051
aVDwightKurtShrute
p3052
aVEukldin
p3053
aV303win
p3054
aVPoorStudentTA
p3055
aVgin_qrwo
p3056
aVruoka
p3057
aVCalypsoCain
p3058
aVmary1993
p3059
aVJonathanJN
p3060
aVDarkenedStar
p3061
aVRenoodleWNDRxxx
p3062
aVMysteryman64
p3063
aVjustanub
p3064
aVKnowltey
p3065
aVkrosenest
p3066
aVumngirl
p3067
aVSourPatchAdult
p3068
aVFelonsHaveFriends
p3069
aVevades83
p3070
aVkaratedude1990
p3071
aVEdapoe
p3072
aVJohnClaymore
p3073
aVkaleidoscopeiis
p3074
aVHippotater
p3075
aV883iron
p3076
aVthe_pawl
p3077
aVFlippy02
p3078
aVSnapdude9
p3079
aVandwilldsaid
p3080
aVmarsolo16
p3081
aVqjb
p3082
aVHintshigen
p3083
aVshhkari
p3084
aVSkorcH333
p3085
aVdriftsc
p3086
aVdmgirl
p3087
aVKatzenklavier
p3088
aVToxicsidewinder
p3089
aVwashyourfruit
p3090
aVsquidpotato
p3091
aVSurprisinglyEdible
p3092
aVSliverPhish
p3093
aVBuju3000
p3094
aVEdgar_A_Poe
p3095
aVwithoutamartyr
p3096
aVCowboylikeme
p3097
aVzedoktar
p3098
aVc0wboigreas3
p3099
aVcuttingagent
p3100
aVimsupercereal4
p3101
aVHungsolo08
p3102
aVOpenFusili
p3103
aVnarwhall
p3104
aVstarboardbow
p3105
aVseveralwolves
p3106
aVMrDrPhizzle
p3107
aVtanrans
p3108
aVRynoke
p3109
aVioiodogy
p3110
aVwolfknight
p3111
aVLovePenguin333
p3112
aVdtk320
p3113
aVAlejandrar3
p3114
aVSatheling
p3115
aVverygenericusername
p3116
aVPIant
p3117
aVladyluck04
p3118
aVw0mpw0mp
p3119
aVMarbhDamhsa
p3120
aVRedOrAlways
p3121
aVstrawberrykiwi1992
p3122
aVDJ_J-Dub
p3123
aVrastafreaks
p3124
aVCosmoRealmer
p3125
aVcyclosity
p3126
aVztfreeman
p3127
aVsexpotato
p3128
aVcriwolv
p3129
aVDocAtDuq
p3130
aVjtomatzin
p3131
aVPyrohazard
p3132
aVunibody
p3133
aVvictoria87
p3134
aVErronSeth
p3135
aVnerdy_and_nice
p3136
aV4amloco
p3137
aVfunkymunniez
p3138
aVkevka
p3139
aVceevar
p3140
aVstudentneedingnoms
p3141
aVseabass86
p3142
aVmynameisyoko
p3143
aVLexypinkhair
p3144
aVpost91
p3145
aVwantonviolins
p3146
aVstonerninja
p3147
aVLysdestic
p3148
aVColobos329
p3149
aVjessmanyeah
p3150
aVchris_jed
p3151
aVshmuelb
p3152
aVyeneeko
p3153
aVlisad33611
p3154
aVCommodorJuggles
p3155
aVqueen_mcgina
p3156
aVLlamasOrDucks
p3157
aVJrozario
p3158
aVkmart67620
p3159
aVGrimfromsome
p3160
aVmadamthefifth
p3161
aVwolfbuzz
p3162
aVH00ded
p3163
aVAnjitheBeast
p3164
aViceschade
p3165
aVVirginityCollector
p3166
aVbromaslav
p3167
aVwinnifredatusf
p3168
aVmrefvem
p3169
aVclubs924
p3170
aVKrazeRyo
p3171
aVtpb01
p3172
aVautomatic_bazooti
p3173
aVvelvetcrayon
p3174
aVtxn9
p3175
aVNessa209
p3176
aVfranki3J
p3177
aVeunosben
p3178
aVAracnel
p3179
aVjbeckfox
p3180
aVbr4dleysm0m
p3181
aVsitosanta
p3182
aVzer0hz
p3183
aVAnagove
p3184
aVnightynite
p3185
aVkeysarecool
p3186
aVHs_doc
p3187
aVchristmasinmycar
p3188
aVDonkeyGraves
p3189
aVjsdykstra
p3190
aVSaltywounds
p3191
aVbebeschtroumph
p3192
aVsuperherobeasley
p3193
aVultracanery
p3194
aVmicabebecca
p3195
aVGottaMakeIt
p3196
aVFlyingCouch
p3197
aVFoxdieMercury
p3198
aVfeuerzuaschezuasche
p3199
aVMrGoldenVoice
p3200
aVmrbigfun
p3201
aVrastapasta808
p3202
aVwiat09
p3203
aVeverhasbefore
p3204
aVSublime1996
p3205
aVdrowninginpudding
p3206
aVkippythablonde
p3207
aVhautegauche
p3208
aVlexsey55
p3209
aVmhortonable
p3210
aVwarchamp7
p3211
aVfaceless_one
p3212
aVghostmelon
p3213
aVsmokeey
p3214
aVflagman10
p3215
aVPeriodicTableDancer
p3216
aVNickMason01
p3217
aVkimi21
p3218
aVboysenburry
p3219
aVsadandworried
p3220
aVMcNicken
p3221
aVthisisentertainment
p3222
aVPelleas
p3223
aValexandrathegr8
p3224
aVgreenbeen1
p3225
aVasdflayne
p3226
aVkyraxxxlynn
p3227
aVtimecrasher
p3228
aVPlainJain
p3229
aVbeavis81
p3230
aVtrogdorkiller
p3231
aVgettingtherety
p3232
aVcopinters
p3233
aVsariahsara
p3234
aVbreelyair
p3235
aVthadlozen
p3236
aVXxHopex89
p3237
aVmlw4428
p3238
aV0b4m4
p3239
aVSporkhater
p3240
aVLadyBrett
p3241
aVcorestore4moar
p3242
aVdipmyballsinit
p3243
aVillegalDL
p3244
aVLoadChaud
p3245
aVrdwing
p3246
aVwingal
p3247
aVDenise65
p3248
aVdarth_boggs
p3249
aVmamaof1
p3250
aVDiggtionary
p3251
aVValaksha
p3252
aVfingerscrossed2
p3253
aVdevouredbylogic
p3254
aVStewieJr
p3255
aVhart1975
p3256
aVldiabl0530
p3257
aVMinnesotaMatt
p3258
aVevondahl
p3259
aVstraitodenim
p3260
aVwithbrolafsaxe
p3261
aVCrusnik909
p3262
aVSu_Hua
p3263
aVColinFlolin
p3264
aVfunkinwagnallz
p3265
aVMcDoodleFiend
p3266
aVill_use_this_one
p3267
aVangelpuff
p3268
aVdyeam
p3269
aVThat_Black_Kid
p3270
aVbiwley
p3271
aVpopopnoro
p3272
aV3scher
p3273
aVphotography444
p3274
aVartsya3
p3275
aVGatsbygreat
p3276
aVPorcelainPoet
p3277
aVakristacat
p3278
aVGolisten2LennyWhite
p3279
aVmaster_commander
p3280
aVhungryforpizza0000
p3281
aVchrishilldrop
p3282
aVdoublev85
p3283
aVLucy_dog
p3284
aVDonna_Jean
p3285
aVnastyn8k
p3286
aVBottleman
p3287
aVBrotherpain82
p3288
aVdatmunchkin
p3289
aVgolfalien
p3290
aViradescentiris
p3291
aVFull_Time_Gamer
p3292
aVDeborah111111
p3293
aVIvannaJump
p3294
aVzahidraja
p3295
aVomegawoot
p3296
aVthatwholurks
p3297
aVdanroccks
p3298
aVRitalinYourMemory
p3299
aVkiwiness
p3300
aVFmh1667
p3301
aVfrustrationparade
p3302
aVkaysetab
p3303
aVmaohaze
p3304
aVWindel
p3305
aVOscarWildez
p3306
aVSirHellsing420
p3307
aVmazack
p3308
aVpeahat
p3309
aVthenewnum2
p3310
aVRottenresurrection
p3311
aVyackie
p3312
aVsociallyantisocial
p3313
aVmatcauthion
p3314
aVPrince_Squirtle
p3315
aVPanikinap
p3316
aVhungryman2
p3317
aVshawshank3d
p3318
aVTouglasBoat
p3319
aVsixoverme
p3320
aVttwwrrss
p3321
aVtwfl
p3322
aVTonyaLynn84
p3323
aVblue_pixie
p3324
aVShitOnTheWayToWork
p3325
aVZoobileeZooRules
p3326
aVJbudsss
p3327
aVGlass_of_Milk
p3328
aVhakura11
p3329
aVskinnytie
p3330
aVsphygmoman
p3331
aVSeattleShrew
p3332
aVdeusahominis
p3333
aVchristbeatty
p3334
aVtroyroyroy
p3335
aVMorticianofFaith
p3336
aVchriscosta77
p3337
aVKB1101
p3338
aVBatMasterson5
p3339
aVnorromin
p3340
aVlasertits69
p3341
aVgootray
p3342
aVMikey85
p3343
aVmeonhere
p3344
aVi_poop_more_than_u
p3345
aVtjsbabymama
p3346
aVmcdxi11
p3347
aVdeborah124
p3348
aVCyclingTom
p3349
aVBehindaLensinBigSky
p3350
aVEcyg
p3351
aVrobotbeard
p3352
aVNew_Computer315
p3353
aVFwob
p3354
aVKicken
p3355
aVmelancholymaze
p3356
aVmicrolotus
p3357
aVSpiritdad
p3358
aVkillerd
p3359
aVNefariousStray
p3360
aVKappn
p3361
aVnjdevils2626
p3362
aVjezekiant
p3363
aVdoc_brietz
p3364
aVnetizenbane
p3365
aVcherrysweet
p3366
aVBumblescump45
p3367
aVboner_sushi
p3368
aVGayballs
p3369
aVscared_of_dad
p3370
aVcbooth0818
p3371
aVlucette_van
p3372
aVuptownpatti
p3373
aVLakesideHerbology
p3374
aVsamtastic2
p3375
aVichooseyoupika2
p3376
aV3-17-12
p3377
aVslipnslide91
p3378
aVkarmicmoondreams
p3379
aVinfrastructure
p3380
aVredditluvr11
p3381
aVfingerblastic
p3382
aVanigavnisinep
p3383
aVMyusernameisfunny
p3384
aVcarraway
p3385
aVtrojanman42
p3386
aVKayleemarie19
p3387
aVBomani_Jones
p3388
aVIWillBeatThis
p3389
aVskull_glitch
p3390
aVNastidon
p3391
aVMalphystoh
p3392
aVdurden87
p3393
aVdarkwingfuck
p3394
aVFhoxx
p3395
aVdickobags
p3396
aV8bitd1ck
p3397
aVdjbartos93
p3398
aVheyturtle
p3399
aVxX_Jon_Boehner_Xx
p3400
aVLynnReid1971
p3401
aVPatticus06
p3402
aVwyliegirl
p3403
aVlisechen
p3404
aVMajesticTowerOfHats
p3405
aVLunaa
p3406
aVomglazers
p3407
aVdylanausing
p3408
aVSeepThreepEO
p3409
aVSkywolfBloodraven
p3410
aVMegaMayhem
p3411
aVradium-v
p3412
aVsarahxxxsora
p3413
aV87Eric
p3414
aVbugsinamber
p3415
aVmellytorado
p3416
aVEscape92
p3417
aVLeminnes
p3418
aVjohnod
p3419
aVNauticallyYours
p3420
aVwademanuk
p3421
aVlooksfine
p3422
aVYepSheSaidThat
p3423
aVbonerjamage
p3424
aVinnovindil
p3425
aVSubhazard
p3426
aVplong0
p3427
aVthe_chandler
p3428
aVladyoftime123
p3429
aVmattmatty21
p3430
aVbotulizard
p3431
aVJason_Seagull
p3432
aVSupercakes101
p3433
aVJaredbt
p3434
aVBobwayne17
p3435
aVNovember_
p3436
aVxLaForge
p3437
aVdevjunk
p3438
aVxTanGuy
p3439
aVcaturdaynauplz
p3440
aVPrince_Keylaylee
p3441
aVdankne
p3442
aVbobdoleequalsgod
p3443
aVAmoebaCowboy
p3444
aVaceetobee
p3445
aVstefanie_k
p3446
aVtwometerventshaft
p3447
aVsinglemommyof1
p3448
aVamberLM
p3449
aVTemari22
p3450
aVokiegirl
p3451
aVimaged
p3452
aVcardiffian
p3453
aVfrackthatbitch
p3454
aVEchelon64
p3455
aVcaarl
p3456
aVxCJRx
p3457
aVWildVariety
p3458
aVBukowskaii
p3459
aVsammac
p3460
aVgetoutofherestaIker
p3461
aVkaratastrophe
p3462
aVjustbeinjustin
p3463
aVskeleton_kiss
p3464
aVgokunt
p3465
aVZappaSmappaz
p3466
aVTerminalxSound
p3467
aVkstryker
p3468
aVangelcompton
p3469
aVINeverGoToWork
p3470
aVRSvennson
p3471
aVexdigga
p3472
aVDjKiDD
p3473
aVthebarrelmonkey
p3474
aVlunchbox4_20
p3475
aVbzilla
p3476
aVlandg
p3477
aVmatthewcj03
p3478
aVchylilith
p3479
aVbiglizardinmybyard
p3480
aVzaiden911
p3481
aVamberene
p3482
aVtangerinerind
p3483
aVRand-AlThor
p3484
aVlemonl1m3
p3485
aVmolyns
p3486
aVstephanodude
p3487
aVthehusko
p3488
aVmcchick
p3489
aV1level1
p3490
aVDoomjelly
p3491
aVkat61
p3492
aVsifon187
p3493
aVTogimon
p3494
aVSushi_Fish
p3495
aVjulirocks
p3496
aVlovelylady502
p3497
aVPouncival_Gaming
p3498
aVPaperCrates
p3499
aVfudging_starving
p3500
aVcaptainsum
p3501
aVcomradefuzz90
p3502
aVraddisease
p3503
aVClintCHall
p3504
aVFizzMaster0
p3505
aVGoingRogue
p3506
aVbellavagabond
p3507
aVgeeeenie
p3508
aVmoontanned
p3509
aVrachc9
p3510
aVTechGuyDallas
p3511
aVcolawars
p3512
aVFlappah723
p3513
aVthatkidmax
p3514
aVfrenchd91
p3515
aVjustin1311
p3516
aVhillbilly909
p3517
aVthrewahway
p3518
aVNatafly
p3519
aVsevendaysky
p3520
aVSuspiciousTurtle
p3521
aVthisisme1988
p3522
aVbelizardbeth
p3523
aVtdubx
p3524
aVHydratingFIRE
p3525
aVLoneKharnivore
p3526
aVPuddl3Pirate
p3527
aVSoManyMinutes
p3528
aVragnarok927
p3529
aVdingo152
p3530
aVherduckyness
p3531
aVMutantTeddyBear
p3532
aVpotentialpizzapowers
p3533
aVcrispyWOFL
p3534
aVfebmo
p3535
aVhihi44
p3536
aVAidanmcn
p3537
aVStu2519
p3538
aVdcarrrey
p3539
aVjack60
p3540
aVblessedlife
p3541
aVI_raped-I_rape_cats
p3542
aVeffigies
p3543
aVAsiapandemic
p3544
aVFixergirl
p3545
aVgeekonamotorcycle
p3546
aVKeefa101
p3547
aVdave_the_african
p3548
aVKellyL3
p3549
aVroccala
p3550
aVharrelli
p3551
aVVordLader
p3552
aVjlmango
p3553
aVSpliff_Me_Up
p3554
aVdigitaldraco
p3555
aVNessasayswhat
p3556
aVSemajSemajSemaj
p3557
aVManning01
p3558
aVnormallythere
p3559
aVmacredsun
p3560
aVHybridMuffin
p3561
aVCaptMayer
p3562
aVraspberryblonde
p3563
aVglycerinSOAPbox
p3564
aVross5781
p3565
aVElGruntox
p3566
aVDudronia
p3567
aVsno0py_girl
p3568
aVgoingnorthwest
p3569
aVWithABaseballBat
p3570
aVseanterry7
p3571
aVCardboardpoops
p3572
aVFRAGM3NT
p3573
aVraymendx
p3574
aVbarcher80
p3575
aVOldScenee
p3576
aVminirocker56
p3577
aVObvious-Implyer
p3578
aVKimmieC1996
p3579
aVJeannaW
p3580
aVAPICTUREOFAWHALE
p3581
aVLegendaryMobius
p3582
aVPenultimate_Timelord
p3583
aVCmartinez43
p3584
aVwerrdio
p3585
aV4on_the_floor
p3586
aVAgentCodySpanks
p3587
aVbigfishh
p3588
aVfuckbitchesgeteuros
p3589
aVOllieh96
p3590
aVDr_omaha
p3591
aVManny_Mudbutt
p3592
aVHereForTheHunt
p3593
aVghostlytrees
p3594
aVkwaththeraven
p3595
aVkdpizza
p3596
aVpazewzew
p3597
aVthepinkyoohoo
p3598
aVArcath_
p3599
aVJimNortonLuvsTheCock
p3600
aVSuicidal_Inspirant
p3601
aVsesameeyes
p3602
aVlioness7
p3603
aVPresident_Flowbama
p3604
aVcb98678
p3605
aVConansBeard
p3606
aVMinnesotaPride
p3607
aVBread_and_Bones
p3608
aVtieks0
p3609
aVmichael1223
p3610
aVJaiSol
p3611
aVpghguitar
p3612
aVthrowawayscared
p3613
aVkristamollett
p3614
aVTheDecline28
p3615
aVscissormonkey
p3616
aVMofabolist
p3617
aVKameronID
p3618
aVthefeesh
p3619
aVCalvinW
p3620
aVDigikid13
p3621
aVdisposablewife
p3622
aVbedouinebabe
p3623
aVfelixthemaster1
p3624
aVicankilluwithmybrain
p3625
aVRandomWeirdShit
p3626
aVReckless5040
p3627
aVbrresnic
p3628
aVJohnWilkesTruth
p3629
aVdontjudgemybutt
p3630
aVStLRedditGirl
p3631
aVysberk
p3632
aVghandiburger
p3633
aVtake7steps
p3634
aVRL007
p3635
aVKosobuckaroo
p3636
aVProck88
p3637
aVAraiebowhi
p3638
aVred_cobalt
p3639
aVldun91
p3640
aVMrB0mbastic
p3641
aVAustonian87
p3642
aVsharpenup
p3643
aVRyane927
p3644
aVmydogfinnigan
p3645
aVthebraus
p3646
aVEwalk
p3647
aVhousewife29169
p3648
aVallusions
p3649
aVsenchi
p3650
aVAmhuffaker
p3651
aVryangraves
p3652
aVEvilCyborg10
p3653
aVorangejews1
p3654
aVzombieinferno
p3655
aVbuoywonder77
p3656
aVzzisrafelzz
p3657
aVHobbsauce
p3658
aVjongasm
p3659
aVCalv1nrox
p3660
aVTai2172
p3661
aVvodoman123
p3662
aVWayward54
p3663
aVBeastybarnes21
p3664
aVTheTripCommander
p3665
aVgnidaol123
p3666
aVpretty_honest_guy
p3667
aVDMLydian
p3668
aVRenegade_Journo
p3669
aVFinch58
p3670
aVSugarRushSlt
p3671
aVrottenramen
p3672
aVMrPoohHead
p3673
aVtotallybroke
p3674
aVceerob007
p3675
aVKjack12
p3676
aVChristouxphr
p3677
aVgordo82
p3678
aVsdritchie
p3679
aVgreggsandler
p3680
aVTheCakeMilker
p3681
aVbooktheif
p3682
aVknockerwocky
p3683
aVDangerQ
p3684
aVMoldybooks
p3685
aVemmuhleee
p3686
aVgeneralnotsew
p3687
aVWagnam
p3688
aVjhuck30
p3689
aVniqabi
p3690
aVBangosSkank
p3691
aVthrowaway_father
p3692
aVJustGodlyEnough
p3693
aVIBeyondBirthday
p3694
aValnajjd
p3695
aVHungryCollegeKid1
p3696
aVVyous
p3697
aVPaladinlost
p3698
aVxEONx
p3699
aVsunchow
p3700
aVDaveyDaVinci
p3701
aVmckinsa
p3702
aVTenth_Doctor
p3703
aVNinja1017
p3704
aVFish_Cheese
p3705
aVthefireballkid
p3706
aVdanieldavidpeterson
p3707
aVthatcouldhavebeenme
p3708
aVFranceWinsWar
p3709
aVSorinSaakat
p3710
aVjdxogdlfkjvndgl
p3711
aVInNeedOfPizzaBad
p3712
aVbocelot
p3713
aVJT803streetkarma
p3714
aVBatchIntoGear
p3715
aVrico2992
p3716
aVyogsothog
p3717
aVHEYIMMAWOLF
p3718
aVSyrupDerp
p3719
aVtsinclair
p3720
aVChicagoRex
p3721
aVchelac
p3722
aVSancho6000
p3723
aVphab3k
p3724
aVJack_Mason
p3725
aVPeacePig
p3726
aVraveneyes77
p3727
aVZilveari
p3728
aVrandomguy634
p3729
aVbretsony
p3730
aVSnorlax12
p3731
aVLurkerConnie
p3732
aVNotWant
p3733
aVzqxwcevrbt
p3734
aVimdol
p3735
aVplaidsuitpants
p3736
aVIdontsellcrack
p3737
aVichwillkuhe
p3738
aVvillageidiot1991
p3739
aVfueledbysatan
p3740
aVHMPoweredMan
p3741
aVallaside
p3742
aVyohansen47
p3743
aVATwoms
p3744
aVMisterWigggles666
p3745
aVluluwinchestah
p3746
aVtastychicken
p3747
aVfollowingflanders
p3748
aVneeddis
p3749
aVpreternaturous
p3750
aVineedateam1
p3751
aVcelticsbig4
p3752
aVSebastian23
p3753
aVkekelly
p3754
aVfablewings
p3755
aVTheDudeAbides37
p3756
aVHadesSmiles
p3757
aVbaderftw
p3758
aVkiwi061216
p3759
aVsault1988
p3760
aVTotally-Fucked
p3761
aVneonrose
p3762
aVlikestartups
p3763
aVjojoko
p3764
aVstrawberrytard
p3765
aVsquirrelyMAPLE
p3766
aVname_with_a_y
p3767
aVrosaliezom
p3768
aVwafflefalafel
p3769
aVcrazedy
p3770
aVwatsoned
p3771
aVJoblessCollegeKid
p3772
aVImadeanaccount4this
p3773
aVghostrider90
p3774
aVthesmithspresumably
p3775
aVretshalgo
p3776
aVOkToBeTakei
p3777
aVMofiaGangster
p3778
aVnewstart101
p3779
aVLordJesusChrist777
p3780
aVHelloFruitBat
p3781
aVGuinnessWithinUs
p3782
aVbrotherbock
p3783
aVDiscordanceAxis
p3784
aVmhallgren5
p3785
aVIttieBittie
p3786
aVerusumu
p3787
aVvisivopro
p3788
aVLightSideIsRightSide
p3789
aVKoolaidchick
p3790
aVvaldes10163
p3791
aVmurraydaskull
p3792
aVfreakish-neko
p3793
aVThe_black_Community
p3794
aVlinkinwisdom
p3795
aVXandersmommy
p3796
aVBumpiestBread
p3797
aVgoddamnitdad
p3798
aVTornadoCondorV2
p3799
aVmrgreeny
p3800
aVcrusaderqueen
p3801
aVtheredditor1142
p3802
aVtrees_and_waffles
p3803
aVHekz
p3804
aVBotanicare
p3805
aVCalientepocket1
p3806
aViprizefighter
p3807
aVice_ent
p3808
aVMystic11
p3809
aVcasella2
p3810
aVdeerareinsensitive
p3811
aVMechEngineeringGod
p3812
aVflynnski
p3813
aVtehjeff
p3814
aV3kris08
p3815
aVThe_Babe
p3816
aVsoggyperson
p3817
aVandrewmcflyy
p3818
aVsexybrowneyes
p3819
aVRogpog777
p3820
aVocpmbrat
p3821
aViwant2drum
p3822
aVjustforrazors
p3823
aVThatOtherOneGuy
p3824
aVHakeemOlajuwon
p3825
aVrshepa1555
p3826
aVAsmaJones
p3827
aVlivingdub
p3828
aVridiculous_questions
p3829
aVmilleribsen
p3830
aVblackstar00
p3831
aVkeepitupstairs
p3832
aVtbone711
p3833
aVGuysWhatTheFuck
p3834
aVsnicketorticket
p3835
aVSweatyMarshKitten
p3836
aVjuanwonton
p3837
aVMonkeysnott
p3838
aVnis42
p3839
aVdeadheartsbeat
p3840
aVEgocentric
p3841
aVnancy_raygun
p3842
aVFrancesca84
p3843
aVEmostarcraft
p3844
aVGeneralRose
p3845
aV___interlude
p3846
aVdr_wang
p3847
aVYazcara
p3848
aVLethargicMonkey
p3849
aVcinnamondolce
p3850
aVbowlnoodlez
p3851
aVAwake00
p3852
aVscarlettenoir
p3853
aVAistoBasBistoC
p3854
aVtherealcraxy
p3855
aVFortune417
p3856
aVrandomnightfreedie
p3857
aVDummkopfs
p3858
aVShuffleandTruffle
p3859
aVcolonialspew
p3860
aVjunefirst123
p3861
aVSatire55
p3862
aVStarrHrdgr
p3863
aVTheBeardedOwl
p3864
aVAsk_Me_About_My_Pie
p3865
aVdangersgirl
p3866
aViwfh
p3867
aVazeroth_dawn
p3868
aVthe2ndtolastunicorn
p3869
aVBellicose_Engineer
p3870
aVtoaster_waffle
p3871
aVleftyguitarguy
p3872
aVToyfare
p3873
aVohgodthebees
p3874
aVkoriki
p3875
aVnomorestumbling
p3876
aVlondoncolson
p3877
aVSDAdam
p3878
aVDTorakhan
p3879
aVTaurusRising
p3880
aVmoondisyko
p3881
aVrbasov
p3882
aVlemonmellow
p3883
aVyarco
p3884
aVDagdagger
p3885
aVfunkengruven88
p3886
aVjackelope
p3887
aVVanheim
p3888
aVVeryfluffydragon
p3889
aVLexAurum
p3890
aVDwabbleDwabble
p3891
aVSarahGadz
p3892
aVdummyhead
p3893
aVHoly_Beard
p3894
aVBlazinEnt
p3895
aVBestRbx
p3896
aVwiz3n
p3897
aVPsychoNinjaFlea
p3898
aVmthoms3746
p3899
aVjshima2
p3900
aVRyo_Hazuki
p3901
aVInfamousDoctor
p3902
aVWangJinrei
p3903
aVmr_muzzy
p3904
aVTorontoInSummer
p3905
aVrareapplepie
p3906
aVrckmomof2
p3907
aVpandarawr
p3908
aVIWantToBeNormal
p3909
aVTheGreatestRedditor
p3910
aVstordoff
p3911
aVwhoopdippitydooda
p3912
aVuponthewatershed
p3913
aVstephmkt
p3914
aVgarywb069
p3915
aVthedestro
p3916
aVbigmamad
p3917
aVTalwyn
p3918
aVthemanifold
p3919
aVJGRIFF123
p3920
aVexternals
p3921
aVCaliConnection
p3922
aVJoe_purdy
p3923
aVmommyof2babyboys
p3924
aVPantherX
p3925
aVleeshapwnz
p3926
aVNicolu
p3927
aVMethodikull
p3928
aVmsmaddening
p3929
aVwendetta
p3930
aVswiftlessons
p3931
aVmightiestMouse
p3932
aVLittleWhiteTab
p3933
aVlukamako
p3934
aVchinchilla618
p3935
aVDendo1
p3936
aVrowannagreen1
p3937
aVDagsMcHung
p3938
aVcookrw1989
p3939
aVbelovebepeace
p3940
aVsdwrage
p3941
aVSchizoreindeer
p3942
aVMegainPhoto
p3943
aVhomeschoolingmom
p3944
aVLaheyDrinks
p3945
aVredrum1140
p3946
aVmamacat68
p3947
aVAndthatguy
p3948
aVTaiokaion
p3949
aVRafiTBA
p3950
aVdeus_ex_eagles
p3951
aVmaximusstyles
p3952
aVmommyof42011
p3953
aVjoederpsmith
p3954
aVexpandyourroots
p3955
aVLMKurosu
p3956
aVhaydenandlexysmommy
p3957
aVmrpoolman
p3958
aVconfused_redditor
p3959
aVrabitrabbit
p3960
aVcdieguez
p3961
aVmomof2inms
p3962
aVDarksaber85
p3963
aVAndrea_D
p3964
aVAdamman62
p3965
aVbravefencertrollashi
p3966
aVdinothesaur
p3967
aVemilyishungry
p3968
aVLinuxPoser
p3969
aVKamiKazilik
p3970
aVfirelovinggerbil
p3971
aVCBClemens
p3972
aVhavox07
p3973
aVnerdalicious85
p3974
aVmollymoosesays
p3975
aVmumblethesilent
p3976
aVdollfacexo
p3977
aVNOT_A_BUMBLE_BEE
p3978
aVisingthr4iam
p3979
aVBlandfrw
p3980
aVklairedee
p3981
aVhungryuniversitykid
p3982
aVRAOPthrowawayy
p3983
aVILoveCookies55
p3984
aVJeihou
p3985
aVTheLightingGuy
p3986
aVIgotantinmypant
p3987
aVISKEELE
p3988
aVN-ConfusedPorphyrin
p3989
aVebulajonez
p3990
aVhappehkitteh
p3991
aVwilbur2010
p3992
aVFrequentHandWasher84
p3993
aVjenntotheferr
p3994
aVtekn04
p3995
aVebetha
p3996
aVRokky94
p3997
aVx777x777x
p3998
aVkeithmann
p3999
aVninatwin
p4000
aVNortherninfinity
p4001
aVPAPA_EN_MI_CULO
p4002
aVmosephk
p4003
aVsawake
p4004
aVB-A-Cchante
p4005
aVohsocleverhuh
p4006
aVBag_of_Ducks
p4007
aVLambDuhh
p4008
aVglowstix420
p4009
aVBlue_Falcon_
p4010
aVkatz22492
p4011
aVChoCake
p4012
aVbornbytheriver
p4013
aVgmalcolmlewis
p4014
aVjamisonfitz
p4015
aVCyanideBunneh
p4016
aVdxtrr
p4017
aVTDenning
p4018
aVboogieonregwoman
p4019
aVs32
p4020
aVjensdad2005
p4021
aVangelbaby21
p4022
aVTony_tigre
p4023
aVDizzy_Desu
p4024
aVgrits207
p4025
aVEllebean
p4026
aVgufcfan
p4027
aVVellon221
p4028
aVthedukeofdukes
p4029
aVschuppaloop
p4030
aVfinancial_idiot
p4031
aVtwosoon22
p4032
aVlinfanapo
p4033
aViLikeCatsAlot1
p4034
aVXeiliex
p4035
aVHectorthegreatone
p4036
aVsocomnvy
p4037
aVbonny-bee
p4038
aVWilfordGrimley
p4039
aVchimneyswifty
p4040
aVcodacorolla
p4041
aVrvm4488
p4042
aVdsteeleAggie
p4043
aVJankman01
p4044
aVraddakatkat
p4045
aVsean1986
p4046
aVryandury
p4047
aVpwitty2
p4048
aVSmokehTheBear
p4049
aVSandman212
p4050
aVOsperyz
p4051
aVfeetluvr
p4052
aVsir_walter
p4053
aVBigBoss722
p4054
aVImMakingWaffles
p4055
aVAcylum
p4056
aVsiochain09
p4057
aVksj
p4058
aVTMHS
p4059
aVDillTheOne
p4060
aVjmw765
p4061
aVAsher123498
p4062
aVAlwaysAntiHivemind
p4063
aVloofkid
p4064
aVcrwlz
p4065
aVEVILemons
p4066
aVdiardiar
p4067
aVmeowmeowkiki
p4068
aVImnobloodylord
p4069
aVpordspoke
p4070
aVspookycookies
p4071
aVGoogleOpenLetter
p4072
aVJava980
p4073
aVIzTheFizz
p4074
aVahnalrahpist
p4075
aVDesperateInAustin87
p4076
aVdil3000
p4077
aVhBoBh
p4078
aVViceroyRW
p4079
aVKrushion
p4080
aVthestinkywhistler
p4081
aVvCarbonix
p4082
aVachrist14
p4083
aVDenimTree
p4084
aVgearhead82592
p4085
aVtopodan
p4086
aVcckynv
p4087
aVThatGuyWhoAte
p4088
aVCyberpunk360
p4089
aVNigelxD
p4090
aVJoshVester
p4091
aVgatorfan12
p4092
aVDrFeargood
p4093
aVcyanide_zombie
p4094
aVsundaytripz
p4095
aVdebolt
p4096
aVNoiseJunkie
p4097
aVShadowElliot
p4098
aVthrowaway0751
p4099
aVPterrific
p4100
aVkillapeeez
p4101
aVDecibelDiscord
p4102
aV_Synth_
p4103
aVJazzyMcNazz
p4104
aVSigmaValentine
p4105
aVcrosec
p4106
aVStelfury
p4107
aVsuarezi93
p4108
aVpaleobicycle
p4109
aVTrmy9b
p4110
aVmikedante2011
p4111
aVmoonsockets
p4112
aVJeffRoyale
p4113
aVcrottece
p4114
aVthrowawaybfaccount
p4115
aVjustinfrederick
p4116
aVideotera
p4117
aVladybugstar28
p4118
aVjanell89gagnon
p4119
aVfizzyliftingdrinker
p4120
aVscaireejack
p4121
aVtaxidermi
p4122
aVTTAMREKRAP
p4123
aVmzprice23
p4124
aVmcsquar3d
p4125
aVskins21
p4126
aVdalthughes
p4127
aVblistered_avalon
p4128
aVtheassdestroyer
p4129
aVluv276
p4130
aVBlly509
p4131
aVrockthisbeach
p4132
aVchynncarmen
p4133
aVcoolcat123280
p4134
aVmichaelarm987
p4135
aVajmar21
p4136
aVCDThornborrow
p4137
aVSoleSoldier
p4138
aVHunbiki
p4139
aVplaydoepete
p4140
aVCanchi
p4141
aVGuitarFiend
p4142
aVTaxeSnomore20
p4143
aVMrPowerful
p4144
aVlmao_ze_dong
p4145
aVKozii
p4146
aVlilMrsSunshine
p4147
aVthebasementtapes
p4148
aVtheseaguy
p4149
aVMatt_Muier_Eyes
p4150
aVthevillagekid
p4151
aVtheniceiceman
p4152
aVkarabearindy
p4153
aVhow_do_i_name
p4154
aVdrmojo418
p4155
aVandihow
p4156
aVriverfrontmom
p4157
aVquesaadia
p4158
aVBTT2
p4159
aVAbsinthe42
p4160
aVenneathought
p4161
aVunluckyfortheholiday
p4162
aVdont_thane_on_me
p4163
aVyellowsubtab
p4164
aVmaqkathy
p4165
aVFritoOreo
p4166
aVomyhotlibertineson
p4167
aVliferemixed
p4168
aVpropertyoftim
p4169
aVctrl_c
p4170
aVamalgamka
p4171
aVsootoor
p4172
aVmdax8414
p4173
aVctrl_z
p4174
aVfohacidal
p4175
aVSuperblySuperb
p4176
aVNemesis0320
p4177
aVIrieHooper
p4178
aVMisaDarling
p4179
aVDillingerDrummer
p4180
aVbleeding_dying_love
p4181
aVcyb1n
p4182
aVTARDISBlue2013
p4183
aVHomiesunite
p4184
aVikaika
p4185
aVnissie1
p4186
aVStephyGang
p4187
aVSpecialKRJ
p4188
aVtonyac84
p4189
aVPomplamousse
p4190
aVPauseBreak1
p4191
aVnichogm
p4192
aVModstFox
p4193
aVTheInternetIsNaughty
p4194
aVmxdness
p4195
aVtapatilo
p4196
aVmilkysky
p4197
aVtake_and_toss
p4198
aVMeeNinjaTurtle
p4199
aVCtSamurai
p4200
aVawesomeAccent
p4201
aVNymphetamineRx
p4202
aVPurple9994387483
p4203
aVsheenobu
p4204
aVScrotusMinimus_2
p4205
aVMythbuster52
p4206
aVTheNic90
p4207
aVbroke_hungry_student
p4208
aVKBall629
p4209
aVMyDogTotoro
p4210
aVHayleyWearsPrada
p4211
aVtheshizle
p4212
aVDepinna
p4213
aVAvizandum
p4214
aVDontLetUp
p4215
aVKatat0nikRadi0
p4216
aVajlover1986
p4217
aVhelldeamon3
p4218
aVGalus
p4219
aVihatememes0
p4220
aVbones_jones132
p4221
aVRjsProperty
p4222
aVThrowawayBegger
p4223
aVJustBlewMyLoad
p4224
aVmike7260s
p4225
aVHipsterMonk
p4226
aVNarwhalNumber5
p4227
aVJBVega
p4228
aVThe_War_On_Drugs
p4229
aVPsysiphea
p4230
aVthat-one-bear
p4231
aVandrewett
p4232
aVJa03
p4233
aVniyou77
p4234
aVgrahamsimmons
p4235
aVCaptain_McAsshole
p4236
aVfishcatcake
p4237
aVziggywiggy
p4238
aVPrayingfriend
p4239
aVhijynx427
p4240
aVjoshoutloud
p4241
aVsmellybird
p4242
aVjamison88
p4243
aVgambola
p4244
aVpaularisingopinion
p4245
aVDizzyIzzyW
p4246
aVsiberian_whistle
p4247
aVDonotdrinkthewater
p4248
aVwildcatz311
p4249
aVOperationBriPo
p4250
aVthehungrythrowaway
p4251
aVgreenbee202
p4252
aVMamayoda
p4253
aVsmalls852
p4254
aVwhoresmack
p4255
aVihavesomethings
p4256
aVDesireeAnn106610
p4257
aVvaderssoliloquies
p4258
aV__C3__
p4259
aVgothlips
p4260
aVguyperonni
p4261
aVTheSundanceKid45
p4262
aVnesquiksand
p4263
aVtysmommy0831
p4264
aVnicholsml
p4265
aVwhyalltheglitter
p4266
aVlonesomeky
p4267
aVfreedominthefoliage
p4268
aVI_Miss
p4269
aVjt573
p4270
aVGingy19
p4271
aVBibleBeltAtheist
p4272
aVcampbellseh
p4273
aVb0unc37x
p4274
aVPandSiper
p4275
aVspikes1800
p4276
aVmuffunz13
p4277
aVClocktease
p4278
aVtheanimator88
p4279
aVmonolisa
p4280
aVcubiczoeconia
p4281
aVDaedalus256
p4282
aVgetwhatuget
p4283
aVRSMLancey
p4284
aVFelidiaFeatherbottom
p4285
aVkeyblade321
p4286
aVdeere
p4287
aVaviatorofscience
p4288
aVllanox
p4289
aVLwCrid
p4290
aVmightiestmouse2003
p4291
aVpurplefairy
p4292
aVstevenflerl
p4293
aVS0brlvn
p4294
aVNotAtAllBenny
p4295
aVquinncuatro
p4296
aVneverdoblow
p4297
aVOzKFodrotski
p4298
aVmandahugandkis
p4299
aVAbiding_Lebowski
p4300
aVieatfoodsometimes
p4301
aVEauNoire
p4302
aVdeathsyce02
p4303
aVKpac_0000
p4304
aVZweistar
p4305
aVms_cole19
p4306
aVGuerrero22
p4307
aVArugulaDeathSmash
p4308
aVpanicbomb44
p4309
aVxcorilynn
p4310
aVBronans
p4311
aVex-theist
p4312
aVyatahazio
p4313
aVvbran601
p4314
aVricesock
p4315
aVMananers
p4316
aVAzA__
p4317
aVRPhilosopher
p4318
aVBoatzilla22
p4319
aVJenna_Kitten
p4320
aVdlenoxx
p4321
aVmrparker55
p4322
aVvoodoowizard
p4323
aVThat_Urks_Me
p4324
aVJack_Of_All_Meds
p4325
aVBigBadDog
p4326
aVstrikeralley
p4327
aVtheonemankliq
p4328
aVuncomfortable_pillow
p4329
aVtethercat
p4330
aVembarrassedaboutthis
p4331
aVTheBossMan5000
p4332
aVlodinick
p4333
aVdasfeiz
p4334
aVkick_the_chort
p4335
aVTheUnrepententLurker
p4336
aVSinnocent
p4337
aVTalesavo
p4338
aVtooembarassedplshelp
p4339
aVdboti
p4340
aVnjankowski
p4341
aVrichierich925
p4342
aVOMGSX
p4343
aVWhazzits
p4344
aVwebrunner42
p4345
aVRarararararar
p4346
aVLowkeykeylow
p4347
aVBrendanDlay
p4348
aVwaldotherogue
p4349
aVGuiadan
p4350
aVsetcountzero
p4351
aVefflixi
p4352
aVKingCarnivore
p4353
aVlhelmka
p4354
aVTwoHeadedPanthr
p4355
aVlives2cream
p4356
aVLt_Shniz
p4357
aVPwncho
p4358
aVTallGlass
p4359
aVbad_cab
p4360
aVyoungdirty
p4361
aVsierra217
p4362
aVRettro
p4363
aVSkeetle_Mcgorge
p4364
aVfanciedtickle
p4365
aVGuidoMcGee
p4366
aVTheGooglePlex
p4367
aVCrappyconnection
p4368
aVth3cavalry
p4369
aVandwithtthat
p4370
aVhomelessgal
p4371
aVthehorrorchord
p4372
aVScootaloo22
p4373
aVGraywolves
p4374
aVansonr
p4375
aVIwearhats
p4376
aVtaterpot
p4377
aVMushroomLizard
p4378
aVmoderator000
p4379
aVGetaPizza
p4380
aVdadof3
p4381
aVAragog
p4382
aVHeaven87
p4383
aVbingbangbooom
p4384
aVmissmceachern
p4385
aVentwithapenis
p4386
aVBoSolaris
p4387
aVsysadminwatdo
p4388
aVRaidouKuzunoha
p4389
aVTheNarv1901
p4390
aVZynzynzyN
p4391
aVForever_Flaccid
p4392
aVVampiresagain
p4393
aVKnittedOwl
p4394
aVOmurchu
p4395
aVgirlzmomtwo
p4396
aVbeencaughtfapping
p4397
aV2k0
p4398
aVSATXreddit
p4399
aVSteve_Zissou
p4400
aVHeresTheSitch
p4401
aVUCBCarebear
p4402
aVerickk83
p4403
aVkittybow
p4404
aVTragic125
p4405
aVODSTAdrianFii
p4406
aVArmedSnobbery
p4407
aVBigDaddyLurker
p4408
aViKidCudi
p4409
aVLionKatt
p4410
aVkellierose
p4411
aVdonamunns
p4412
aVlrm102195
p4413
aVdirtywook
p4414
aVziggymilson
p4415
aVSarahbear123
p4416
aVaroracle
p4417
aVLookNoHandlebars
p4418
aVCandleEnds
p4419
aVInvisllama
p4420
aVVixen88
p4421
aVMythodrome
p4422
aVemmo245
p4423
aVVirusDeleo1
p4424
aVMitch2025
p4425
aVBig-ass-titties
p4426
aVwolf_redrum
p4427
aVDarklordsauron
p4428
aVroughdiamonds
p4429
aVvickisam
p4430
aVStarbuck0123
p4431
aVGuiltEngine
p4432
aVjkabash
p4433
aVR3dds
p4434
aVTaven_The_Bold
p4435
aVcompto35
p4436
aVelliottok
p4437
aVamdra
p4438
aVspaghetties
p4439
aVsmechile
p4440
aVGoochGewitter
p4441
aVaaronthehuman
p4442
aVthunderpcats
p4443
aVRogueNine
p4444
aVpoutina
p4445
aVsteamboatdavey
p4446
aVwakedan
p4447
aVjesmew
p4448
aVdavisescapeplan
p4449
aVoneordinarylife
p4450
aVplagel
p4451
aVskinpeels
p4452
aVSDBabe
p4453
aVryansmommy
p4454
aVgomental
p4455
aVpaztime
p4456
aVSerious_Table
p4457
aVkrokounleashed
p4458
aVRachel123456789
p4459
aVqwertyweezel
p4460
aVNiapino
p4461
aVaFunnyWorldWeLiveIn
p4462
aVetrius5
p4463
aVmojo4460
p4464
aVcalabresi
p4465
aVtheloneliestgeek
p4466
aVmrslowloris
p4467
aVroxie1127
p4468
aVCcaseyC
p4469
aVShrapnelShock
p4470
aVAlt948328549
p4471
aVdannianne
p4472
aVdonttrolljohn
p4473
aVrinnanine
p4474
aVhypchronic
p4475
aVBowserscastle1234567
p4476
aVanankletisasmallsock
p4477
aVthrowaway121711
p4478
aVbeatdownbutnotbroken
p4479
aVcraigory45
p4480
aVAaronAcousticide
p4481
aVpbtechie
p4482
aVRattaTatTat
p4483
aVfullmetalutes
p4484
aVmegthegreatone
p4485
aVyeahmaybe
p4486
aVTrapandRelease
p4487
aVwilliamspam91
p4488
aVicefall5
p4489
aVkillhimalready
p4490
aVdadoftwinboys
p4491
aVFadedReality
p4492
aVjavi_intheair
p4493
aVryanvoyles1
p4494
aVneedsapizza
p4495
aVHungryCouple
p4496
aVisrael_regardie
p4497
aVlookinatthegoodside
p4498
aVpwitt2
p4499
aVavalon18
p4500
aVYellowBirdLadyFinger
p4501
aVsbmode
p4502
aVNakedLunchbox
p4503
aVTHevil30
p4504
aVAndrewTindall
p4505
aVohsammyboy
p4506
aVfuckitchuckit
p4507
aVyun-
p4508
aVFapotheosis
p4509
aVjthall
p4510
aVpyewacketcg
p4511
aVcourse_you_do
p4512
aVdillano609
p4513
aVCrochetniac
p4514
aVimaphuckingdog
p4515
aVTurtledunkz
p4516
aVf33dback
p4517
aVartvandelay916
p4518
aVamym91
p4519
aVLynxx
p4520
aVIkouze
p4521
aVJewseephish
p4522
aVLil_lubun
p4523
aV6995
p4524
aVBionic0n3
p4525
aVEvrimnn13
p4526
aVXxbatman_XD
p4527
aVpipedreamexplosion
p4528
aVtaythrash
p4529
aVskys_hubby
p4530
aVcavanaughs
p4531
aVrobmpulse
p4532
aVwhatisthisthing
p4533
aVchalt0
p4534
aVTheOperaCar
p4535
aVxtenext
p4536
aVe-simonds
p4537
aVSleeplessInTheSouth
p4538
aVOrcasmic
p4539
aVDooky-chan
p4540
aVerikturner10
p4541
aVbreakupbluesthrowawa
p4542
aVElaquidor
p4543
aVWulfbane
p4544
aVMrBearengar
p4545
aVHepatitis_420
p4546
aVhebisreal
p4547
aVthelinestepper
p4548
aVDannyJones
p4549
aVMJKauz
p4550
aVkaptainkeel
p4551
aVKadenTau
p4552
aVtomK1983
p4553
aVtejmin
p4554
aVabjackso
p4555
aVgnarwalbacon
p4556
aVKaysmommy
p4557
aVG0ATLY
p4558
aVamericanhitcher
p4559
aVchalkdongler
p4560
aVvilmarti
p4561
aVKeitaroCoS
p4562
aVbobbyllama
p4563
aVismokedalltheshwag
p4564
aVjbauer777
p4565
aVlady_deirdra83
p4566
aVsabresandbills
p4567
aVotice5447
p4568
aVP2thaG
p4569
aVselfabortion
p4570
aVuser20499288345
p4571
aVCrayonManQuestion
p4572
aVnorthcoast_lady
p4573
aVSaintSnuggles
p4574
aVStafiejman
p4575
aVbonjourcava
p4576
aVJamber_Jamber
p4577
aVllamallanallama
p4578
aVCynicalAssassin
p4579
aVJokoAndy
p4580
aVsmjase
p4581
aVStagnent
p4582
aVBlueLightDistrict
p4583
aVscumbagbrainy
p4584
aVXfairytalejunkiex
p4585
aVtshinotu145
p4586
aVvpal
p4587
aVstrugglingtogetby
p4588
aVKennywalker
p4589
aVmaliedoo
p4590
aVloveforlennon
p4591
aVjmelol
p4592
aVkwmwtaj
p4593
aVTherion6
p4594
aVHungry4Pizza
p4595
aVAntarix
p4596
aValrightmike
p4597
aVmatty509
p4598
aVWhyMustTheyDie
p4599
aVfoxclocks
p4600
aVir0bot
p4601
aVtehlolredditor
p4602
aVmoldy_fingers
p4603
aVMoFoSantaClaus
p4604
aVRose_Lade
p4605
aVkendall12321232
p4606
aVmeSoLame
p4607
aV4northftw
p4608
aVkrpiper
p4609
aVBigNeecs
p4610
aVrx7dude
p4611
aVDorthyMantooth
p4612
aVfreyant
p4613
aVaustin944
p4614
aVigotbigtitties
p4615
aVloonybhatia
p4616
aVWanderlustking236
p4617
aVcevogel
p4618
aVcupcakeDeb
p4619
aVpooMonger
p4620
aVHi_Im_yogibear
p4621
aVDomDomRevolution
p4622
aVmmb2ba
p4623
aVChazzzzzz
p4624
aVmoomilkmon
p4625
aVdeftgsxr
p4626
aVanthonyLe123
p4627
aVblu_olivz
p4628
aVsmsaint
p4629
aVDankJack
p4630
aVPulgogi
p4631
aVJacobRyanD
p4632
aVdaveywaveybaby
p4633
aVaint2proud2beg
p4634
aVJastha
p4635
aValabamasweet
p4636
aVKentuckyFriedNinja
p4637
aVcodax755
p4638
aVoOREALLYOo
p4639
aVcliffkleven
p4640
aV_Mink
p4641
aVevilon3
p4642
aVStill_mind
p4643
aVMeggiePoo10
p4644
aVneo1616
p4645
aVrolling_st0ner
p4646
aVwittyusername1987
p4647
aVSpilly5
p4648
aVAmbie79109
p4649
aVlolo91187
p4650
aVhardbop1
p4651
aVmagneteye
p4652
aVviolalala
p4653
aVHarryturd
p4654
aVmiraculous_starlet
p4655
aVKargashi
p4656
aVganderson81
p4657
aVsock-em-boppers
p4658
aVblackbird82
p4659
aVDakftw
p4660
aVdeepfriedarjun
p4661
aVRaiyuza
p4662
aVnOoN3s
p4663
aVroflrad
p4664
aVMasterflan
p4665
aVkatkelly57
p4666
aVdryersheets
p4667
aVPhungasaur
p4668
aValicekobett
p4669
aVpizzaforbartenders
p4670
aVdirtyharry8
p4671
aV_chmod777_
p4672
aVihavethesads
p4673
aVbkeiya
p4674
aVyourmother-athon
p4675
aVModemEZ
p4676
aV_sil
p4677
aVjramjram
p4678
aVbitsofsick
p4679
aVMuttly2001
p4680
aVspriley
p4681
aVZeinheiger
p4682
aVNotreallymeinmadison
p4683
aVNimues
p4684
aVExOblivion
p4685
aVantigravity_x
p4686
aVsizlo
p4687
aVTheStorySoFarBro
p4688
aVTakeachanceonme
p4689
aVSkittles19
p4690
aVOffalAutopsy
p4691
aVTysonus
p4692
aVwolfhunterbob
p4693
aVroobacca
p4694
aVHungLikeAMidget
p4695
aVcam843
p4696
aVsubrosis
p4697
aVedwards12691
p4698
aVCixah
p4699
aVsmewoo
p4700
aVangelcdm228
p4701
aVxyzornat
p4702
aVBrownGuyLikesPie
p4703
aVHush399
p4704
aVAries2203
p4705
aV__The__Doctor
p4706
aVwaltersworldwide
p4707
aVsplott
p4708
aVbau5k1ng
p4709
aVTomDoughnitus
p4710
aVBonedbyPaypal
p4711
aVlovly22
p4712
aVcookie0076
p4713
aVYepImBroke
p4714
aVEmperorXenu
p4715
aVcherrymama
p4716
aVm_chamberlin
p4717
aVskumfuck
p4718
aVKevinsBacon
p4719
aVjhansipower
p4720
aVshiv3rz
p4721
aVAllen4083
p4722
aVBuckfutters
p4723
aVblahblah34
p4724
aVtaosk8r
p4725
aVpilzkopf
p4726
aVhatescarrots
p4727
aVVitaminFortified
p4728
aVmclovinsauce
p4729
aVLvl61Vaporeon
p4730
aVBoobJank
p4731
aVncktwt
p4732
aVchrisbellttu
p4733
aViamkaiser
p4734
aVOnDaBlockSlanginRock
p4735
aVhankgrill03
p4736
aVsharp_endfo_sticking
p4737
aVJustlaughaboutit
p4738
aVSTHOA
p4739
aVufsi
p4740
aVpandemic
p4741
aVspuffy_forever123
p4742
aVchieftokenpuff6
p4743
aVKarter44
p4744
aVoscar8430
p4745
aVszinther
p4746
aVjovialkitten
p4747
aVsam6374
p4748
aVrth182
p4749
aVartificialred
p4750
aVafricanabarbie
p4751
aVBrainDeadMuffin
p4752
aVStarMech
p4753
aVJoshancy
p4754
aVccraig6277
p4755
aVUndersurface
p4756
aVASD_Sinfonian
p4757
aVCaptBeeFart
p4758
aVhawkfeathers
p4759
aVcompletelydrained270
p4760
aVVenomheart
p4761
aVwanna_goober
p4762
aVcluckles
p4763
aVViridianVixen
p4764
aVelectric_boogaloo06
p4765
aVshaggyhair
p4766
aVtruesauce
p4767
aVLugeeBomb
p4768
aVquakingandshaking
p4769
aVpandaman0926
p4770
aVguywiththeanklesocks
p4771
aVjeswrestledabearonce
p4772
aVaphorg
p4773
aVtimtheinchanter
p4774
aVChrisandanna
p4775
aValiceann93
p4776
aVfyiiamaspy
p4777
aVmenehan
p4778
aVmomof4boys
p4779
aValexandraentendre
p4780
aVladydontmine
p4781
aVpdocmanov
p4782
aVdoglover007
p4783
aVOmNomdePlum
p4784
aVcafriend
p4785
aVrnelso23
p4786
aVDogsAreCool55
p4787
aVsayzar
p4788
aVfatdp
p4789
aVNebben
p4790
aVUbb_zerve
p4791
aV65daysofstatic
p4792
aVYarbsful
p4793
aVsarancape
p4794
aVthechoop
p4795
aVTommyHollywood
p4796
aVjewishpopcorn
p4797
aVandrea1017
p4798
aVjdayment
p4799
aVfrogers
p4800
aVTomMaxwell
p4801
aVseekingcerulean
p4802
aVm0llyj
p4803
aVpenguin9
p4804
aVRobot_Legs
p4805
aVCookie_Waffles
p4806
aVeternalwhitemoon
p4807
aVColLingusPoonhammer
p4808
aVianingf
p4809
aVadorhlb23
p4810
aVvomitisjustskimmilk
p4811
aVShnoox
p4812
aVprincesspentagon
p4813
aVshaboingdezzleknock
p4814
aVScrambo
p4815
aVFoley_is_Good
p4816
aVBrabbit12345
p4817
aVnerdbaitplus3
p4818
aVdontsayohwell
p4819
aVNinwa
p4820
aVRogerASmith55
p4821
aVBlack_Floyd47
p4822
aVgraphicdesignmorgan
p4823
aVanita_pizza
p4824
aVpictochick
p4825
aVBigPlunk
p4826
aVbman23433
p4827
aVsyn1734
p4828
aVgryphon5245
p4829
aVSabromex
p4830
aVnomewe
p4831
aVbebe7985
p4832
aVFrenchFry5725
p4833
aVgeek_swagg
p4834
aVfknsewermoose
p4835
aVdesignasaurus
p4836
aVJollyman
p4837
aVDirectorArea51
p4838
aVSociallyAdeptPenguin
p4839
aVTrebloc
p4840
aVjcgentry
p4841
aVmoocoo1
p4842
aVLynziruffles
p4843
aVAnAnimal
p4844
aVMidNightSky
p4845
aVblaxened
p4846
aVMarc815
p4847
aV3littlegrems
p4848
aVsteamwolf90
p4849
aVShorae
p4850
aVkaysee2654
p4851
aVtriemers
p4852
aVTheDoctorZeus
p4853
aVTheCats_PJs
p4854
aVkatiezine
p4855
aVGlimpseOfReality
p4856
aVcafepressguy
p4857
aV4RMYDUD3
p4858
aVcowwww
p4859
aVGrapejuiceBros
p4860
aVJanetSnakehole_
p4861
aVamotion7
p4862
aVthesuperrad
p4863
aVMCC5
p4864
aVCastorSpring
p4865
aVGov_RickPerry
p4866
aVsarafalls
p4867
aVporebadstarde
p4868
aVGabrielNYC2012
p4869
aVUniversityGyno
p4870
aVLashate
p4871
aVasualum2002
p4872
aVkickazzgoalie
p4873
aVslayer_of_potatoes
p4874
aVrunningonnubs
p4875
aVNLynn789
p4876
aVcutcopy
p4877
aVnhcollegechic
p4878
aVmeehan117
p4879
aVconkliec
p4880
aVjemsblock
p4881
aVSilverback
p4882
aVKawaiiQueen
p4883
aVkdubz0r
p4884
aVgimpyone
p4885
aVleadflanders
p4886
aVmenurbabies
p4887
aVSunakuNiwa
p4888
aVchitejin
p4889
aVDrunk_Uncle_Ted
p4890
aVcaliforniawaitingx
p4891
aVDirtyMcNasty
p4892
aVThor_Odin_Son
p4893
aVKitamerby
p4894
aVkittysister91
p4895
aVbenc1213
p4896
aVTeffen
p4897
aVmynameispaulsimon
p4898
aVwtfmercedes
p4899
aVl0serl0ve7
p4900
aVdisorientedhobo
p4901
aVjeffp85
p4902
aVRaviede
p4903
aVeskiimo
p4904
aVcrowdsurfer
p4905
aVtvk4486
p4906
aVluckydoo
p4907
aVmhbelfry
p4908
aVdarknessdfa
p4909
aVzpoehlein12
p4910
aVChimes61
p4911
aVLitemode
p4912
aVJELLY__FISTER
p4913
aVTramMonkey
p4914
aVkomoto13
p4915
aVicemanGiveth
p4916
aV3daughters2dogs1cat
p4917
aVMrSlippyfist
p4918
aVPodentOros
p4919
aVArkanicus
p4920
aVtd117
p4921
aVLaurenBlake21
p4922
aVpacmanfloataway
p4923
aVrhubey
p4924
aVelmariachi304
p4925
aVOhuma
p4926
aVarismaggiani
p4927
aVsuzed
p4928
aVchefjayke
p4929
aVgenerallypositive
p4930
aVbobmystery
p4931
aVtreepage
p4932
aVkimk3
p4933
aVimakephotosk
p4934
aVsprocketcraft
p4935
aVmindy2013
p4936
aVTristanleecantcook
p4937
aVkol13190
p4938
aVjcneal04
p4939
aVoneironautalis
p4940
aVAultra
p4941
aVdjbsay
p4942
aVKing_Hawking
p4943
aVomarciddo
p4944
aVJamesChadThompson
p4945
aVermahgerd_face
p4946
aVIrishfanbuck
p4947
aVgwennyrose
p4948
aVReddit434838
p4949
aVrobbbbbbbbbbbb
p4950
aVsparklejackie
p4951
aVjetaimemiko
p4952
aVthelwynn
p4953
aVThe_Axelrod
p4954
aVStoned_Pelican
p4955
aVvanman33
p4956
aVKaozcore
p4957
aVbry1982
p4958
aVnomlah
p4959
aVblindinganusofhope
p4960
aVDe3ertf0x
p4961
aVneesey5150
p4962
aVthiscnidocyte
p4963
aVTrouserSnake2992
p4964
aVredditormom2011
p4965
aVhashashin710
p4966
aVTechnosugar
p4967
aVtxtsd
p4968
aVOKnowUC
p4969
aVxcris19x
p4970
aVAsswater_Discoteca
p4971
aVJabberBody
p4972
aVJackpot96
p4973
aVChavodelOcho
p4974
aVFlanney
p4975
aVannelysa
p4976
aVkevonicus
p4977
aVdoctorelliot
p4978
aVdouglashill
p4979
aVdreamendDischarger
p4980
aVava_adore
p4981
aVkadykimberbradburn
p4982
aVrightdeadzed
p4983
aVhexwise
p4984
aVitsKOOLtobeGREEN
p4985
aVin4everything
p4986
aVSadAndHungry
p4987
aVkyokoc
p4988
aVismywifeawhore
p4989
aVgrandma20101
p4990
aVNiGHTSfan
p4991
aVL33tm4st3r
p4992
aVFILTHY_VIRGIN
p4993
aVfaeriedustx
p4994
aVcutemom27
p4995
aVNed_Starks_Foot
p4996
aVGiantBag
p4997
aVKincade117
p4998
aVArturos
p4999
aVpizzafun
p5000
aVSledgemau5
p5001
aVhungrycollegekid
p5002
aVAceavia
p5003
aVsweetdaisy
p5004
aVpizzathrowaway12314
p5005
aVFeidhlim77
p5006
aVketaminoru
p5007
aVRamt_1
p5008
aVswimfast111
p5009
aVed_toast
p5010
aVsanctusnirvana
p5011
aVaforarmy
p5012
aVdestructopop
p5013
aVsister4sale
p5014
aVTyeguy
p5015
aVDangerNGrayce
p5016
aVWeechickadee
p5017
aVMiiiils
p5018
aVNigerio
p5019
aVAlaricV
p5020
aVAwhMan
p5021
aVBete-Noire
p5022
aVBeatPhr34k
p5023
aVstarwynd43
p5024
aVIcometodrum
p5025
aVMellebelle16
p5026
aVlawlessk
p5027
aVphr3shcooki3s
p5028
aVkisscakes
p5029
aVjeffandstuff
p5030
aVJTyler82
p5031
aVBnutnative
p5032
aVEsVachel
p5033
aVShadom
p5034
aVLurkingLikeABau5
p5035
aVsmun92
p5036
aVjstone0402
p5037
aVsilverzone
p5038
aVThe-Seldom-Seen-Kid
p5039
aVClassyCreepyBastard
p5040
aVchanlonxp1
p5041
aVoh1berlin
p5042
aVmagesquishy
p5043
aVsir_scotch
p5044
aVLittlemissMusical
p5045
aVvonnemutt
p5046
aVXanthien
p5047
aVdprowan84
p5048
aVRaxshi
p5049
aVBartholomewJones
p5050
aVThrowayguy
p5051
aVheylookitseliu
p5052
aVwickawickawatts
p5053
aVfauxrobot
p5054
aVgoldenivy
p5055
aVHowulikeit
p5056
aVtheverybestusername
p5057
aViamthekawaiiprincess
p5058
aV_BiPolarBear_
p5059
aVkip256
p5060
aVnyanking
p5061
aVRetsopuck
p5062
aVJorion
p5063
aVDoesntLikeChicken
p5064
aVtargetpi
p5065
aVDirtyDirtyPerverts
p5066
aVilikehamburgers
p5067
aVVengefulOctopus
p5068
aV0r1g1n4lg4m3r
p5069
aVhippiemama
p5070
aVlukejones100
p5071
aVmkaskavitch
p5072
aVneon_neon
p5073
aVCubcake
p5074
aVmandyyyy040
p5075
aVjordancam
p5076
aVFlaxwenchPromise
p5077
aVTimeToRepaint
p5078
aVChempy
p5079
aVHungryindenver
p5080
aVkaarno
p5081
aVdacookieman
p5082
aVSoManyShades
p5083
aVmararox
p5084
aVMDMA420
p5085
aVOosterhuis
p5086
aVtigressstar
p5087
aValthor880
p5088
aVSchpsych
p5089
aVlewright
p5090
aVjimnobodie
p5091
aVduracell33
p5092
aVilikedirt
p5093
aVElvisBTwo
p5094
aVpartychu
p5095
aVbladebaka
p5096
aVunforgiving_cake
p5097
aVsammy1990
p5098
aV5288299
p5099
aVsallythrutheally
p5100
aVimthat1girl
p5101
aVPrefixOoblekk
p5102
aVFrankMorris
p5103
aVtomstonehouse
p5104
aVXedma
p5105
aVeuropeandaughter
p5106
aVsinknuckle
p5107
aVPhredman
p5108
aVmrarthursimon
p5109
aVKrashenbern
p5110
aVfoobar314
p5111
aVaafter
p5112
aVWe_The_Living
p5113
aVBrokemans_throwaway
p5114
aVCandlejac88
p5115
aV951asshole
p5116
aVflipperjack
p5117
aVAgainstClint
p5118
aVTheMarketer
p5119
aVWGDpizza
p5120
aVPowerSpatula
p5121
aVcolorsoverflow
p5122
aVcorpusdelenda
p5123
aVkilkel
p5124
aVshinefire
p5125
aVfriedpundit
p5126
aVkelleym8021
p5127
aVbeklemesalonu
p5128
aVGadyLaLa
p5129
aVNikonElite
p5130
aVonecanwish
p5131
aVlivingfields
p5132
aVfantasyjecti0n
p5133
aVelikat
p5134
aVdonttakemywordforit
p5135
aVStevieBecker
p5136
aVKolanie
p5137
aVorange_lotus
p5138
aVCUTIEJUDY
p5139
aVtrislerb
p5140
aVmintchocchip
p5141
aVCael87
p5142
aVjacag2004
p5143
aVParsionez
p5144
aVlll111lll
p5145
aVcupcakelarissa
p5146
aVcarbonfountain
p5147
aVcatmom9
p5148
aVAHinSC
p5149
aVjamesboyan79
p5150
aVFuzzatron
p5151
aVmsparadoxical
p5152
aVxyzzxzzyx
p5153
aVMarivia
p5154
aVColinCancer
p5155
aVRelaxRelapse405
p5156
aV6regmcc
p5157
aVunclejim22
p5158
aVsol-
p5159
aVMattkubed
p5160
aVrickrossgrunts
p5161
aVThrowaway980008
p5162
aVestranged_jackrabb
p5163
aVMarsisDed
p5164
aVNolandCT
p5165
aVvamosj
p5166
aVFabulousfrostmage
p5167
aVksweeley
p5168
aVJ_Justice
p5169
aVsaskatoonhobo
p5170
aVDelStudent20
p5171
aVMysticedge
p5172
aVAmmo333
p5173
aVdekutam
p5174
aVlunbicaijiao
p5175
aVbluedreams39
p5176
aVplayuglyforkevin
p5177
aVknoxontholos
p5178
aVthcidiot
p5179
aVmarckshark
p5180
aVBistroMathematics
p5181
aVLivingWithHoarders
p5182
aVMilesaaway
p5183
aVwoolah
p5184
aVEDJE
p5185
aVyall_weird
p5186
aVPhantomOSX
p5187
aVDecidedly_Average
p5188
aVJustaRatStory
p5189
aVAustinPlease
p5190
aVCat_Shampoo
p5191
aVArchJustin
p5192
aVscreaminginpussy
p5193
aVanafiihayaty
p5194
aVSTRetard
p5195
aVKibblets
p5196
aVAkaiya
p5197
aVRiddy86
p5198
aVxPsalms
p5199
aVSecretus2
p5200
aVAbbie82
p5201
aVdoctorcynicism
p5202
aVSwiss36
p5203
aVHungry_hungryhippo87
p5204
aVbuildlegosnow
p5205
aVJafarMayNeedGlasses
p5206
aVArtwithoutartists
p5207
aVstegogo
p5208
aVZsymon
p5209
aVInSidious425
p5210
aVbusybeemommy
p5211
aVknittingturtles
p5212
aVspacemao
p5213
aVkaylapgh
p5214
aVIanrcampbell
p5215
aVSorryButStsly
p5216
aVMetalheadzaid
p5217
aVsoy__juan
p5218
aVLostOne86
p5219
aVExposuree
p5220
aVsaranglinux
p5221
aVneirad
p5222
aVsniperjohn
p5223
aVspine75
p5224
aVEliteMaster
p5225
aVzeezey
p5226
aVxPostScriptx
p5227
aVduncanjewett
p5228
aVSolvecho
p5229
aVI_post_stuff
p5230
aVrayofsunshine1110
p5231
aVthrowitalloutfriends
p5232
aVChrisand11
p5233
aVlittlemonky
p5234
aVyungbroccoli
p5235
aVbatmanlight
p5236
aVAsmaClementine
p5237
aVFarKingCnut
p5238
aVscapplua
p5239
aVhabbadooba
p5240
aVDjdude128
p5241
aVaviancreature
p5242
aVmaddexx
p5243
aVsuprknowva
p5244
aVTyrinasoarus
p5245
aVcuriousinhistory
p5246
aVApollan
p5247
aVbeachgirl91
p5248
aVnsobleski
p5249
aVlockwolf
p5250
aVanamespeltwrong
p5251
aVgweezer
p5252
aVhmcps89
p5253
aVwhattodo22789
p5254
aVdivendi
p5255
aVTheAverageRedditUser
p5256
aVBElannaLaForge
p5257
aVradicalpancake
p5258
aVIncog-neat0
p5259
aVwandlore
p5260
aVTheGreatGildersleeve
p5261
aVubertuba
p5262
aVLadelthia
p5263
aVjudyisapunk321
p5264
aVSoToAnTrAx
p5265
aVbripdokmont
p5266
aVAzilmak
p5267
aVirover
p5268
aVajauholawola
p5269
aVcheddarcheesepringle
p5270
aVpichofly
p5271
aVasdfom
p5272
aVFutureInanity
p5273
aVmadkiro101
p5274
aVRainbowstarscreamx3
p5275
aVBackToBionic
p5276
aVBisFitty
p5277
aVjtcglasson
p5278
aVDasRegalCag
p5279
aVdoveTail_
p5280
aVProgrammingAllar
p5281
aVsmileyjeanx3
p5282
aVjuniormantis
p5283
aVSomeGuyOnReddit123
p5284
aVreprocessedclouds
p5285
aVMexicaliBlues42
p5286
aVJ1389
p5287
aVbestpartsoflonely
p5288
aVshannbot
p5289
aVdr_spaceout
p5290
aVgary7
p5291
aVorphenshadow
p5292
aVAndreaGreyx
p5293
aVPhillyQ19
p5294
aVzikus
p5295
aVWaitwtfisthis
p5296
aVLadyBrecky
p5297
aVfroggigger
p5298
aVSillyHatsOnly1123
p5299
aVemotep
p5300
aVburningplanet
p5301
aVPDExplorer
p5302
aVtaransean
p5303
aVmsmunn87
p5304
aVSooJ_Bear
p5305
aVARoguePumpkin
p5306
aVCptLeon
p5307
aVCMDRtweak
p5308
aVapplekitty
p5309
aVlurchman
p5310
aVvampyromorph
p5311
aVOl_Geiser
p5312
aVtallkid100
p5313
aVswanson3775
p5314
aVchelloveckskunk
p5315
aVslapsack
p5316
aVHIGHer_ENTucation
p5317
aVsoflaboy
p5318
aVtiger_lily87
p5319
aVCthomte
p5320
aVwindofboe
p5321
aVBrabinto
p5322
aVminimallyeschew
p5323
aVZack93
p5324
aVbarrygusey
p5325
aVgrunge420
p5326
aVmistressbliss
p5327
aVSladeownsyou
p5328
aVDynexxx
p5329
aVWhitechapelPrime
p5330
aVawthumaustin
p5331
aVmuffinmania583
p5332
aVAccioNeedles
p5333
aVflipandzef
p5334
aVgttaluvredditors
p5335
aVGarbanian
p5336
aVColonCatastrophe
p5337
aVBBDB282
p5338
aVsae223
p5339
aVbooperiii
p5340
aVMiss_Anoma_Lee
p5341
aVsonichedghog
p5342
aVDomPolanco
p5343
aVCBV
p5344
aVaguywithacellphone
p5345
aVgrafittiscootaloo
p5346
aVparkerxo
p5347
aVmissg83191
p5348
aVsolarbang
p5349
aVKugru
p5350
aVDani779
p5351
aVcrmsonspo
p5352
aVHowd_it_get_burned
p5353
aVMyLifeIsABeach
p5354
aVthetruefrozn
p5355
aVdesperateandhungry
p5356
aVwasp2356
p5357
aVDmurr6
p5358
aVBerettaVendetta
p5359
aVSuperDave2U
p5360
aVOxist
p5361
aVKlink-a-dink-dink
p5362
aVgeeklove1013
p5363
aVmkeene91101
p5364
aVxjems
p5365
aVPhonieMcRingRing
p5366
aVhippydippy
p5367
aVm4ngo
p5368
aVApplebuddha
p5369
aVomegam0
p5370
aVGrayswandlr
p5371
aVLaRouxRenard
p5372
aVKeeperofEncarta
p5373
aVyoloisharam
p5374
aVswitzx
p5375
aVnicosalakar
p5376
aVthepigeonmn
p5377
aVqueersmut
p5378
aVjtw497
p5379
aVnumberthirteen
p5380
aVcommonreddituser
p5381
aVnickylvst
p5382
aVipopiad
p5383
aVAddison87
p5384
aVHandyman79
p5385
aVhendrixnf
p5386
aVpaisleyswift
p5387
aVlovingdad1982
p5388
aVManyPencils
p5389
aVjme413
p5390
aVgibmunnehorbanu
p5391
aVShaolinShade
p5392
aVEcchi-Dono
p5393
aVRockMondo
p5394
aVthin_crust
p5395
aVProblemzone
p5396
aVtummytune
p5397
aVdumbledohhhh
p5398
aVTK-fett
p5399
aVgabenelsonKPB3292
p5400
aVsnicklefrizz
p5401
aVkajin0
p5402
aVspatimouth01
p5403
aVfriedsooshi
p5404
aVThorbraig
p5405
aVthm09
p5406
aVmicahville
p5407
aVChadOcho87
p5408
aVpunk_lecture
p5409
aVapainfulthrowaway
p5410
aVLidemi
p5411
aVA-random-redditor85
p5412
aVblastedramen
p5413
aVjousou
p5414
aVAkAxDustin
p5415
aVRakeGirl
p5416
aVrnumur
p5417
aVNeuronut
p5418
aVbrom333
p5419
aVchom__
p5420
aVweloveheidi
p5421
aVhfbguy355
p5422
aVBroly3k8
p5423
aVgirlfrom1977
p5424
aVvfquaked
p5425
aVbrazen
p5426
aVBugsBunnysCouch
p5427
aVaverdin
p5428
aVS3XPanther
p5429
aVmathewryan
p5430
aVnullpuppy
p5431
aVredfordjay
p5432
aVmoralityboy
p5433
aVetwl18
p5434
aVblattacker
p5435
aVNitrous42
p5436
aVmaasaw
p5437
aVwhatalaymedown
p5438
aVmaddiepatties
p5439
aVfrappering
p5440
aVZelgardis
p5441
aVhiimmiimii
p5442
aVBlackberryCheese
p5443
aVMasternova
p5444
aVgolga8963
p5445
aVMorbas
p5446
aViFightForUsers
p5447
aVTheMrCartz
p5448
aVmanwith13uses
p5449
aVmindlesscervantes
p5450
aVFrodoUnderhill
p5451
aVdemocritus2
p5452
aVAyzh
p5453
aVabigaila
p5454
aVwhasittoya
p5455
aVJipepii
p5456
aV___VK
p5457
aVKameko4Real
p5458
aVHungry89
p5459
aVdanddel
p5460
aVjaredellison86
p5461
aVItsIoki
p5462
aVnataleejones
p5463
aVhowgoyoufar
p5464
aVhiiilary
p5465
aVthatonejoychick
p5466
aVMagicalMurderCat
p5467
aVLupoScuro
p5468
aVSeeeeu
p5469
aVMaiser
p5470
aVfailsocks
p5471
aVprideisanindulgence
p5472
aVamo25
p5473
aVgladudontknowme
p5474
aVelitekaoss
p5475
aVpfcvenus
p5476
aVoctopolous
p5477
aVdjtempest
p5478
aVWangChi
p5479
aVitswhatiam
p5480
aVheyitslongdude
p5481
aVicecool988
p5482
aVSoundSalad
p5483
aVUngratefulPeon
p5484
aVDarlingDestruction
p5485
aVsdu1627
p5486
aVshinnjr
p5487
aV3loodwolf117
p5488
aVcindisART
p5489
aVqueenofthesmileys
p5490
aVUnfoldablePages
p5491
aVburritoboss
p5492
aVCatManDontDo
p5493
aVquantum14
p5494
aVksnides
p5495
aVashleypenny
p5496
aVpostulate5
p5497
aVwtfosaurus
p5498
aVYUBYUB2424
p5499
aVinternet-arbiter
p5500
aVstuckINokc
p5501
aVBrizzwold
p5502
aVbeccarob
p5503
aVhypn0fr0g
p5504
aVailurus42
p5505
aVtasha0615
p5506
aVvizvanz
p5507
aVCloverhart
p5508
aVMistrCreazil
p5509
aVAlphaDogAntone
p5510
aVtheSubliminalist
p5511
aVtruegreenarmy
p5512
aVbloodybadger
p5513
aVBrewPounder
p5514
aVsmakers1
p5515
aVBrunomars14
p5516
aVSlapthatbass84
p5517
aVnightlily
p5518
aVColoredPencil
p5519
aVfools79
p5520
aVEvermore
p5521
aVSpikesbad78
p5522
aVleutroyal
p5523
aVfollow_your_bliss
p5524
aVantiandrea
p5525
aVZenAndKindness
p5526
aVshanemeh
p5527
aVScribsMcScrabble
p5528
aVAwarewolf2
p5529
aVceltictamuril
p5530
aVnyati55
p5531
aVStdruler
p5532
aVstraightphag
p5533
aVMuhnazer
p5534
aVthatprettichick
p5535
aVChainsawPolice
p5536
aVrocketzsolly
p5537
aVmaaanda
p5538
aVCamJ26
p5539
aVgingerOHsnap
p5540
aVrachray24
p5541
aVho0ber
p5542
aVOkfineyou
p5543
aVlingkingprime
p5544
aVsilvernarnia
p5545
aVaschmalzer
p5546
aVmpl9109
p5547
aVantphany
p5548
aVjaynus
p5549
aVbooger_butt
p5550
aVchickenwing22
p5551
aVSweetpeamommy
p5552
aVrussxbox
p5553
aVcorporatecashcow
p5554
aVGiantNunu
p5555
aVtriforcehoardie
p5556
aVkylawls
p5557
aVTheElDiablo
p5558
aVrarar
p5559
aVpvrc
p5560
aVgimpz
p5561
aVblowjay_simpson
p5562
aVusftampa
p5563
aVankillanessie
p5564
aVTigerbanger115
p5565
aVTheChrizby
p5566
aVmochisimo
p5567
aViLoveYouu21
p5568
aVm4nu
p5569
aVRobogoon
p5570
aVfoursouls
p5571
aVsarascientaster
p5572
aVsongforpizza
p5573
aVtheclosetwriter
p5574
aViambeard
p5575
aVSteve50013
p5576
aVkillyoureparents
p5577
aVcomradeyeltsen
p5578
aVChilliPowderMeth
p5579
aVexplodar
p5580
aVAquintesce
p5581
aVhalupki
p5582
aVlxh039
p5583
aVGrwl
p5584
aVArmyTurtles
p5585
aVMarius_et_Eponine
p5586
aVMelanieS
p5587
aVStarkOne
p5588
aVMesmerale
p5589
aVbaccathatassup
p5590
aVwolin018
p5591
aVLauraar
p5592
aVemileepaige
p5593
aVj_like
p5594
aVJRutterbush
p5595
aVMasta-Blasta
p5596
aVkousun122
p5597
aVseawest_lowlife
p5598
aVrandom2502
p5599
aVPlusUltras
p5600
aVdosborne85
p5601
aVMedulum
p5602
aVcinemocracy
p5603
aVchaoticpix93
p5604
aVUnfrozenCavemanLaw
p5605
aVbL1Nd
p5606
aVCitedAardvark9
p5607
aVPlatinumPenguin
p5608
aVFaroffhighways
p5609
aVmeanstreaklarry
p5610
aVcarltonbankz
p5611
aVHonourandapenis
p5612
aVTommytwotoesknows
p5613
aVaodhrua
p5614
aVPeachesandPie
p5615
aVEmmaMay
p5616
aVbasskitten-
p5617
aVreginalove84
p5618
aVandrewguenther
p5619
aVjessicadontbite
p5620
aVtiredmomto5
p5621
aVnicolerhoades
p5622
aVRapeyTheSpermWhale
p5623
aVsocialclash
p5624
aVwhatisajewanyway
p5625
aVLolleroo
p5626
aVmemodinosaur
p5627
aVgwenniegrrl
p5628
aVDajw1364
p5629
aVkaysmomma
p5630
aVrandomlychatspeople
p5631
aVmadigascar
p5632
aVTheesunbro
p5633
aVStingray8
p5634
aVlilhorn
p5635
aVwitty_or_not_here
p5636
aVHungryMoblin
p5637
aVshittyTaco
p5638
aVelement33
p5639
aVDiscountPuppies
p5640
aVhumansareyum
p5641
aVlikeabaw5
p5642
aVTiaraBear21
p5643
aVstesal
p5644
aVCabe6403
p5645
aVmustafabot
p5646
aVtwatwasthat
p5647
aVfucking_cockatiel
p5648
aVdonkeybuns
p5649
aVGOP_WHIP
p5650
aVsbirche
p5651
aVmneal
p5652
aVstarvingintn
p5653
aVEmiscudi
p5654
aVSch1308
p5655
aVturbojuice
p5656
aVnaruhinagirl
p5657
aVServeSatan
p5658
aVwilliambueti
p5659
aVPrincessMLR
p5660
aVphikapjack
p5661
aVTheOriginalHavoc
p5662
aVSwimmerGirl7
p5663
aVEmploymentFail
p5664
aVcoupleinneed
p5665
aVMistressLT
p5666
aVtbfallout
p5667
aVDiP203
p5668
aVlastmonth
p5669
aVultrafatsumo
p5670
aVHenry_Rowengartner
p5671
aVSilvrbreeze
p5672
atp5673
Rp5674
.