(dp0
Vlynzee
p1
VN/A
p2
sVpzero
p3
VN/A
p4
sVVAN_GOGHING
p5
VN/A
p6
sVthat_is_so_awesome
p7
VN/A
p8
sVlawyerman13
p9
VN/A
p10
sVcaptainguinness
p11
VN/A
p12
sVwhatdoido101010
p13
VN/A
p14
sVoracular_
p15
VN/A
p16
sVcookie_king
p17
VN/A
p18
sVsissy1984
p19
VN/A
p20
sVvancouver1972
p21
VN/A
p22
sVFro_Daddy
p23
VN/A
p24
sVSham_Jam
p25
VN/A
p26
sVAHungryPerson
p27
VN/A
p28
sVredditchulous
p29
VN/A
p30
sVVeryProudhonOfYa
p31
VN/A
p32
sVoutlawadidas
p33
VN/A
p34
sVItzOlahBro
p35
VN/A
p36
sVpizzalovr22
p37
VN/A
p38
sVthablackphoenix
p39
VN/A
p40
sVerikpotter82
p41
VN/A
p42
sVaustocans
p43
VN/A
p44
sVTbolt2
p45
VN/A
p46
sVMathIsDelicious
p47
VN/A
p48
sVSisterHammer
p49
VN/A
p50
sVjacquibatman7
p51
VN/A
p52
sVbalfort
p53
VN/A
p54
sVSummerfools2011
p55
VN/A
p56
sVthe_hedgemon
p57
VN/A
p58
sVSneakyTikiz
p59
VN/A
p60
sVeuugie
p61
VN/A
p62
sVsoreadyourbooks
p63
VN/A
p64
sVrectumranger
p65
VN/A
p66
sVKyosama66
p67
VN/A
p68
sVsheik790
p69
VN/A
p70
sVEmeraldSupernova
p71
VN/A
p72
sVchinesemike420
p73
VN/A
p74
sVThrowaway93fdfd
p75
VN/A
p76
sVwestpfelia
p77
VN/A
p78
sVmmc21
p79
VN/A
p80
sVbananandrea
p81
Vthemanateeman
p82
sVSoldi3r
p83
VN/A
p84
sVA5M
p85
VN/A
p86
sVbitch_puddin
p87
VN/A
p88
sV0o00o00o0o00o0oooO
p89
VN/A
p90
sVKindOfWatchingYou
p91
VN/A
p92
sVPOSMStudios
p93
VN/A
p94
sVMadWhiteMan
p95
VN/A
p96
sVBernieNator
p97
VN/A
p98
sVpaypal4za
p99
VN/A
p100
sVNusent
p101
VN/A
p102
sVredditor_13
p103
VN/A
p104
sVetiolates
p105
VN/A
p106
sVbobntraci
p107
VN/A
p108
sVFlion5001
p109
VN/A
p110
sVhoganloaf
p111
VN/A
p112
sVjavilopez1
p113
VN/A
p114
sVEtherealDragon
p115
VN/A
p116
sVbrokewith2kids
p117
VN/A
p118
sVgauchoback
p119
VN/A
p120
sVThunderCockMartian
p121
VN/A
p122
sVJesusHRChrist
p123
VN/A
p124
sVBeerGeekAlpha
p125
VN/A
p126
sVzombiehannah
p127
VN/A
p128
sVtweedyourtoast
p129
VN/A
p130
sVhollyallen
p131
Vdeus_ex_eagles
p132
sVSmashAnEmoKid
p133
VN/A
p134
sVkatieetatiee
p135
VN/A
p136
sVmowwy
p137
VN/A
p138
sVLiakela
p139
VN/A
p140
sVSnappo
p141
VN/A
p142
sVPudie
p143
VN/A
p144
sVNinjakabob
p145
VN/A
p146
sViProxxy
p147
VN/A
p148
sVAlan_The_Argonian
p149
VN/A
p150
sVtlomuw1
p151
VN/A
p152
sVMrZ33
p153
VN/A
p154
sVstarlight03
p155
Vscrovak
p156
sVChewsti
p157
Vftothec
p158
sVummmmmmmmmmm
p159
VN/A
p160
sVpinsandpearls
p161
VN/A
p162
sVswanthewarchief
p163
VN/A
p164
sVbacondev
p165
VN/A
p166
sVthunderbolt72799
p167
VN/A
p168
sVGamingMaiden
p169
VN/A
p170
sVcreativezen
p171
VN/A
p172
sVyousunkmybattleships
p173
VN/A
p174
sVgoawaynick
p175
VN/A
p176
sVNarglesEverywhere
p177
VN/A
p178
sVMoesh
p179
VN/A
p180
sVRichard_Longboat_IX
p181
VN/A
p182
sVVeryfancydoily
p183
VN/A
p184
sVgnetro
p185
VN/A
p186
sVThe_Rose
p187
VN/A
p188
sVErrchy
p189
VN/A
p190
sVakagoldfish
p191
VN/A
p192
sVthefakeanthonyscott
p193
VN/A
p194
sVtealie13
p195
Vkaboose666
p196
sVheizmon
p197
VN/A
p198
sVwickedspork
p199
VN/A
p200
sVapesnandroids
p201
VN/A
p202
sVStreakor
p203
VN/A
p204
sVCMGJLT
p205
VN/A
p206
sVdarlantan
p207
VN/A
p208
sVTicking__bomb
p209
VN/A
p210
sVLibera
p211
VN/A
p212
sVktpvp
p213
VN/A
p214
sVLovelyLainey
p215
VN/A
p216
sVGuinniPig
p217
VN/A
p218
sVSLNapster
p219
Vrhystatic
p220
sVtOki_Sori
p221
VN/A
p222
sVdamustardtiger
p223
Vincoherentrant
p224
sVandrewbaker_64
p225
VN/A
p226
sVbuggysmama108
p227
VN/A
p228
sVBmxerBarbra
p229
VN/A
p230
sVHobbez
p231
VN/A
p232
sVAlwaysAwful
p233
VN/A
p234
sVYardGnome
p235
VN/A
p236
sVTe5ter
p237
Vltshrink
p238
sVRobNoxious
p239
VN/A
p240
sVid_kai
p241
VN/A
p242
sVdrew2525
p243
VN/A
p244
sVbactchan
p245
VN/A
p246
sVramenramenramenramen
p247
VN/A
p248
sVCarpCarter
p249
VN/A
p250
sVrevant54
p251
VN/A
p252
sVAaron215
p253
VN/A
p254
sVrozap
p255
VN/A
p256
sVLotoSage
p257
VN/A
p258
sVHigglyBumps
p259
VN/A
p260
sVicemax
p261
VN/A
p262
sVbbydede
p263
VN/A
p264
sVsupertigger
p265
VN/A
p266
sVsandyholly3
p267
VN/A
p268
sVpantrybarn
p269
VN/A
p270
sVNoWordToSaveThee
p271
Vimmabeatchoo
p272
sVtophatmcquack
p273
VN/A
p274
sVwindowswill
p275
VN/A
p276
sVbluedays
p277
VN/A
p278
sVJaL19
p279
VN/A
p280
sVTheWorstHasYetToCome
p281
VN/A
p282
sVlegitttz
p283
VN/A
p284
sVtulk88
p285
VN/A
p286
sVsarawoof
p287
VN/A
p288
sVgrayshot
p289
VN/A
p290
sVnutri-matic
p291
VN/A
p292
sVmuchohungry
p293
VN/A
p294
sVJeremy0020
p295
VN/A
p296
sVDevron_System
p297
Vm2nu
p298
sVwatchwatch99
p299
VN/A
p300
sVwatchitfall
p301
VN/A
p302
sVBlazedBro
p303
VN/A
p304
sVSnipe_the_Spy
p305
VN/A
p306
sViHardlyEverComment
p307
Vjohngalt1337
p308
sVrbwildcard
p309
VN/A
p310
sVMuskogee
p311
VN/A
p312
sVluckilymynameisanon
p313
VN/A
p314
sVsirmxe
p315
VN/A
p316
sVMadeOnMyRealBirthday
p317
VN/A
p318
sVsgasph
p319
VN/A
p320
sV2pour4creativity
p321
VN/A
p322
sVTonightsWhiteKnight
p323
VN/A
p324
sVMisfiled
p325
VN/A
p326
sVTheyCallMeStone
p327
VN/A
p328
sVSpudsman
p329
VN/A
p330
sVIAmAPterodactyl
p331
VN/A
p332
sVamagzz
p333
VN/A
p334
sVHPROCKS
p335
VN/A
p336
sVsophyphi
p337
VN/A
p338
sVcorytr
p339
VN/A
p340
sVsprokket
p341
VN/A
p342
sVNotAnObviousThrowAwa
p343
VN/A
p344
sVBlonde_Moments
p345
VN/A
p346
sVLonelyOnNaxos
p347
VN/A
p348
sVBigbaddaboomm
p349
VN/A
p350
sVmrhorror
p351
VN/A
p352
sVomgitsthepast
p353
VN/A
p354
sVLeSteenie
p355
VN/A
p356
sVLouie2112
p357
VN/A
p358
sVSpecro
p359
VN/A
p360
sVTrustMeImHigh
p361
VN/A
p362
sVraNraNs
p363
VN/A
p364
sVc_murder
p365
VN/A
p366
sVDocFGeek
p367
VN/A
p368
sVRainbowDashPro
p369
Vsamantha797
p370
sVroaringbobcats
p371
VN/A
p372
sVtenaciouszep
p373
VN/A
p374
sVsecretlyalone
p375
Vmr_jeep
p376
sVbianca5683
p377
VN/A
p378
sVwittyamber
p379
VN/A
p380
sVWarriorIsCold
p381
VN/A
p382
sVbluecastle
p383
VN/A
p384
sVGloriousPaperWait
p385
VN/A
p386
sVhowmanymics
p387
VN/A
p388
sVRaeFlynne
p389
Vflipfapper
p390
sVTeambrap
p391
VN/A
p392
sVtjk2795
p393
Vstarfireliz
p394
sVEntangledphoton
p395
Vpaulinator
p396
sVzomboi
p397
VN/A
p398
sVflakemusic13
p399
VN/A
p400
sVSorenmatica
p401
VN/A
p402
sVBhraonain
p403
VN/A
p404
sValpha523
p405
VN/A
p406
sVSaturatedChain
p407
VN/A
p408
sVEeOhEm
p409
VN/A
p410
sVnguyengiaan
p411
VN/A
p412
sVloriann14
p413
Vmclwlm
p414
sVlearn2beabum
p415
VN/A
p416
sVOtherRobotLuke
p417
Vbenkeiofthehillpeopl
p418
sVStayFrostyIcebrgSlim
p419
VN/A
p420
sVradpitt
p421
VN/A
p422
sVstrictlycomeprancing
p423
VN/A
p424
sVTurkilla
p425
Vrhynovirus
p426
sVadamstributer
p427
VN/A
p428
sVilllawlatyew
p429
VN/A
p430
sVRural_Realist
p431
VN/A
p432
sVDodongoDislikesSmoke
p433
VN/A
p434
sVVassss
p435
VN/A
p436
sVTriggerdbyChrono
p437
VN/A
p438
sVsicilianhotdog
p439
VN/A
p440
sVspazmodial
p441
Vthr
p442
sVNorthAve
p443
VN/A
p444
sVelephantbuttons
p445
VN/A
p446
sVBarelyNerdy
p447
VN/A
p448
sVsloecks
p449
VN/A
p450
sVfrogfreek
p451
VN/A
p452
sVScaredPartner
p453
VN/A
p454
sVpurseon
p455
VN/A
p456
sVmercmaid
p457
Vgloriouspeanut
p458
sVFrizzelles
p459
VN/A
p460
sVRomnix
p461
VN/A
p462
sVnevermind924
p463
VN/A
p464
sVoccuwalrus
p465
VN/A
p466
sVr0ryfromNY
p467
VN/A
p468
sVrjhomer
p469
VN/A
p470
sVIronswing
p471
VN/A
p472
sVjaymayk
p473
VN/A
p474
sVeq1725
p475
VN/A
p476
sVMiguel2592
p477
VN/A
p478
sVCreamchz
p479
VN/A
p480
sVShyr
p481
VN/A
p482
sVdlnmtt
p483
VN/A
p484
sVkillerwarpig22
p485
VN/A
p486
sVTricher619
p487
VN/A
p488
sVProdigy095
p489
VN/A
p490
sVsilver0a1
p491
VN/A
p492
sVWolfeman0101
p493
VN/A
p494
sVmedelyman
p495
VN/A
p496
sVSwineavionics
p497
VN/A
p498
sVHalpImACat
p499
VN/A
p500
sVthedragslay
p501
VN/A
p502
sVMyKarmaKilledURDogma
p503
VN/A
p504
sVLittleRedReadingHood
p505
VN/A
p506
sVHiredfinally
p507
VN/A
p508
sVdmcmd81
p509
VN/A
p510
sVnikkid234
p511
VN/A
p512
sVBensteez
p513
Vtrust_me_im_a_panda
p514
sVJx22
p515
VN/A
p516
sVcharliebatch
p517
VN/A
p518
sVAvatarMajere
p519
VN/A
p520
sVSparkitten
p521
VN/A
p522
sVliberalwhackjob
p523
VN/A
p524
sVFuzzywumpkis
p525
VN/A
p526
sVfattyboombaladee
p527
Vjohngalt1337
p528
sVcogitaveritas
p529
Vpseudo_prodigal_son
p530
sVtimefornothing
p531
VN/A
p532
sVelephantblueshoe
p533
VN/A
p534
sVrabidsi
p535
VN/A
p536
sVOrangeslayer
p537
VN/A
p538
sVTabbycat719
p539
VN/A
p540
sVG1oves
p541
VN/A
p542
sVendersynthia
p543
VN/A
p544
sVAbstractCelebrity
p545
VN/A
p546
sVhipsterhater608
p547
VN/A
p548
sVHelloUnderworld
p549
VN/A
p550
sVmisterradon
p551
VN/A
p552
sVNinjamonkeysd
p553
VN/A
p554
sVoverindulgent
p555
VN/A
p556
sVcalculuzz
p557
VN/A
p558
sVRastro
p559
VN/A
p560
sVfrankcbright
p561
VN/A
p562
sVass2ass
p563
VN/A
p564
sVmaigotsohongry
p565
VN/A
p566
sVjohnny2by4
p567
VN/A
p568
sVDrPepperHelp
p569
VN/A
p570
sVricecake23
p571
VN/A
p572
sVczeroes
p573
VN/A
p574
sVjedberg
p575
VN/A
p576
sVdrdan1991
p577
VN/A
p578
sVPhllpkrn
p579
VN/A
p580
sVtvrmoil
p581
VN/A
p582
sVsenior2012
p583
Vsartim
p584
sVWolfDroid
p585
VN/A
p586
sVDumbDumbFace
p587
VN/A
p588
sVBobbinThreadbare
p589
VN/A
p590
sVeastcoastin
p591
VN/A
p592
sVshopgirl6837
p593
VN/A
p594
sVtheserpentsmiles
p595
VN/A
p596
sVLittleMissBlue
p597
Vpkbooo
p598
sVPauseBack
p599
VN/A
p600
sVa_wizard_diddit
p601
Voosp
p602
sVjpop325
p603
VN/A
p604
sVjomomasdady
p605
VN/A
p606
sVCharlieScott89
p607
VN/A
p608
sVgjrunfast
p609
VN/A
p610
sVcl0ckw0rk0rang3
p611
VN/A
p612
sVSir_Dalek
p613
VN/A
p614
sVStormRider2407
p615
VN/A
p616
sVgenericgamer
p617
VN/A
p618
sVtrixner
p619
VN/A
p620
sVSlipShift
p621
VN/A
p622
sVFPSalchemy
p623
VN/A
p624
sVStopYellingAt_Me
p625
VN/A
p626
sVIngerwolf
p627
VN/A
p628
sVdeerface
p629
VN/A
p630
sVthatandy
p631
VN/A
p632
sVHekain
p633
Vz0bie
p634
sVI_Cry_Everytime
p635
VN/A
p636
sVT0bster
p637
VN/A
p638
sVWhatsausernameHF
p639
VN/A
p640
sVCappyTheCook
p641
VN/A
p642
sVblackprince542
p643
VN/A
p644
sVMethystria
p645
VN/A
p646
sVecclecticc
p647
VN/A
p648
sVMildcorma
p649
VN/A
p650
sVSvenTreDosa
p651
VN/A
p652
sVlolzombies
p653
VN/A
p654
sVjjcrux
p655
Vpsm321
p656
sVjenny_dur
p657
VN/A
p658
sVthrowaways_
p659
VN/A
p660
sVdrcazes
p661
VN/A
p662
sVambitiousjuvenile
p663
VN/A
p664
sVkukukajoonurse
p665
VN/A
p666
sVozarkaman
p667
VN/A
p668
sVShpook
p669
Vjetboyterp
p670
sVxZack
p671
VN/A
p672
sVclambaked
p673
VN/A
p674
sVvonswain
p675
VN/A
p676
sVRomeKo
p677
VN/A
p678
sVTouchy_touchy_no_no
p679
VN/A
p680
sViheartreddit420
p681
Vhogfathom
p682
sVtheflyhomie
p683
VN/A
p684
sVShufflegirl
p685
VN/A
p686
sVViolentOctopus
p687
VN/A
p688
sVfamilyinneed80
p689
VN/A
p690
sVangelgirl19879
p691
VN/A
p692
sVElemori
p693
Vprimio
p694
sVFrostyra
p695
VN/A
p696
sVNoLuckYet
p697
VN/A
p698
sVsterfried
p699
VN/A
p700
sVadmdelta
p701
VN/A
p702
sVraisinghope
p703
VN/A
p704
sVdotnorma
p705
VN/A
p706
sVzratz3171
p707
VN/A
p708
sVNJMom
p709
VN/A
p710
sVquasarqueenz
p711
VN/A
p712
sVtyman1180
p713
VN/A
p714
sVvertstang86
p715
VN/A
p716
sVMentlegenBacon
p717
Viheartoptimusprime
p718
sVarquebus77
p719
VN/A
p720
sVZeno666
p721
VN/A
p722
sVtheLBD
p723
VN/A
p724
sVptakd33
p725
VN/A
p726
sVaureality
p727
VN/A
p728
sVChiChiGonzales
p729
VN/A
p730
sVmaybesproutwings
p731
VN/A
p732
sVDavisKennethM
p733
VN/A
p734
sVMyGoodGreenDay
p735
VN/A
p736
sVmoosemorse
p737
VN/A
p738
sVTaymuffin
p739
VN/A
p740
sVZacAtom
p741
VN/A
p742
sVtincanweeekly
p743
VN/A
p744
sVstreetmanjoe
p745
VN/A
p746
sVjdbrat03
p747
VN/A
p748
sVcaimaela
p749
VN/A
p750
sVTheHoffman
p751
VN/A
p752
sVUSABMXer
p753
VN/A
p754
sVGomazing
p755
VN/A
p756
sVitsbehindyou
p757
VN/A
p758
sVAbsoluteHero
p759
Vjohnfactorial
p760
sVgreen_eggsandham
p761
VN/A
p762
sVmattryanharris
p763
VN/A
p764
sVchowcow
p765
VN/A
p766
sVMynameisMormon
p767
VN/A
p768
sVIt_Happens_
p769
VN/A
p770
sVHOLATME
p771
VN/A
p772
sVMcsleuthbrgr
p773
VN/A
p774
sVplayuhh
p775
VN/A
p776
sVLokithedeceiver
p777
VN/A
p778
sVhlmtre
p779
VN/A
p780
sVMetricMike
p781
VN/A
p782
sV6whiteboomers
p783
VN/A
p784
sVeric22vhs
p785
VN/A
p786
sVFd657
p787
VN/A
p788
sVleetdood
p789
VN/A
p790
sVjesspest
p791
VN/A
p792
sVpizzaguy1234
p793
VN/A
p794
sVDigitalQuixote
p795
VN/A
p796
sVjimmyomalley01
p797
VN/A
p798
sVElbobtheburrito
p799
VN/A
p800
sVBoredDellTechnician
p801
VN/A
p802
sVadidaman
p803
VN/A
p804
sVISeeYouuu
p805
VN/A
p806
sVdinnersnotready
p807
VN/A
p808
sVrhys91
p809
VN/A
p810
sVbaggins
p811
VN/A
p812
sVthebuttholehunter
p813
VN/A
p814
sVohgodwhyisthishappe
p815
VN/A
p816
sVkazooie777
p817
VN/A
p818
sVDallas_Corbin
p819
VN/A
p820
sVReyz0rd
p821
VN/A
p822
sVSarioth
p823
VN/A
p824
sVJeexyou
p825
VN/A
p826
sVGraceAzuka
p827
VN/A
p828
sVcp7825
p829
VN/A
p830
sVMattMac124
p831
VN/A
p832
sVrken3824
p833
VN/A
p834
sVtherunawaygoldfish
p835
VN/A
p836
sVRozsd_s
p837
VN/A
p838
sVcinematicandstuff92
p839
Vdonthatemasticate
p840
sVAyMiles
p841
VN/A
p842
sVAboveYou5280
p843
VN/A
p844
sVcharliej
p845
VN/A
p846
sVtheRoost3r
p847
VN/A
p848
sVmimic42100
p849
VN/A
p850
sVkeasbey15
p851
VN/A
p852
sVMaggotStorm
p853
VN/A
p854
sVdenimthrowaway
p855
VN/A
p856
sVthomasthon
p857
VN/A
p858
sVtrutalk
p859
VN/A
p860
sVmoomoo420
p861
VN/A
p862
sVdabeanbandit
p863
VN/A
p864
sVSeanmatthewleary
p865
VN/A
p866
sVwjames88
p867
VN/A
p868
sVsnlich
p869
VN/A
p870
sVgoddamnjuice66
p871
VN/A
p872
sVedgedonkey
p873
VN/A
p874
sVI_iz_hungry
p875
VN/A
p876
sVso_damn_hungry
p877
VN/A
p878
sVchhill2
p879
VN/A
p880
sVpinkswan09
p881
VN/A
p882
sVDerMetzgermeister
p883
VN/A
p884
sVarekususan
p885
VN/A
p886
sVXombieshovel
p887
VN/A
p888
sVwenchers13
p889
VN/A
p890
sVkhanyr
p891
VN/A
p892
sVrasungod0
p893
VN/A
p894
sVtaylormitchell20
p895
VN/A
p896
sValicelnwonderland
p897
VN/A
p898
sVluiseuc
p899
Vchicharito1821
p900
sVtheresaneyeinmesoup
p901
VN/A
p902
sVredwinters
p903
VN/A
p904
sVmrplainview05
p905
VN/A
p906
sVMikeEnIke
p907
VN/A
p908
sVflinteastwood
p909
Vraavyn
p910
sVtreepig
p911
VN/A
p912
sVNeousername
p913
VN/A
p914
sVMrTightButt
p915
VN/A
p916
sVMegaross
p917
Vgold-coin
p918
sVWildBeards
p919
VN/A
p920
sVmuffinsformen
p921
VN/A
p922
sVadrearly
p923
Vm2nu
p924
sVshnuffy
p925
VN/A
p926
sVyampuffs
p927
Vmr-smor
p928
sVPhilosoraptorMD
p929
VN/A
p930
sVbobmooney
p931
VN/A
p932
sVquaintmercury
p933
VN/A
p934
sVryukatsusei
p935
VN/A
p936
sVsimplyashley21
p937
VN/A
p938
sVBrototo
p939
VN/A
p940
sVilea316
p941
Vhearip88
p942
sVclong2
p943
VN/A
p944
sVspoon2bigg
p945
VN/A
p946
sVavianavery
p947
VN/A
p948
sVfonzie588
p949
VN/A
p950
sVdehOne
p951
VN/A
p952
sVStormynyte
p953
VN/A
p954
sVwonderdog17
p955
VN/A
p956
sVTwilight_Sparkles
p957
VN/A
p958
sVbledsoep
p959
VN/A
p960
sVthat_guy_who_shops
p961
VN/A
p962
sVaceballos
p963
VN/A
p964
sVdfa649
p965
VN/A
p966
sVKaidenshiba
p967
VN/A
p968
sVmediocrist
p969
VN/A
p970
sVnaseK
p971
VN/A
p972
sVCaptainFuckingPlanet
p973
Vmexta
p974
sVshowurnuts
p975
VN/A
p976
sVraNraNskynet
p977
VN/A
p978
sVflywheel521
p979
VN/A
p980
sVikelewis
p981
VN/A
p982
sVPotentPollen
p983
VN/A
p984
sVarrpee3
p985
VN/A
p986
sVThe__Doctor__
p987
VN/A
p988
sVkyle_p_g
p989
VN/A
p990
sVFlyYellowMoon
p991
VN/A
p992
sVbitner91
p993
VN/A
p994
sVthe_real_davenull
p995
VN/A
p996
sVScione200417
p997
VN/A
p998
sVRydillac
p999
VN/A
p1000
sVliberalartsguy
p1001
VN/A
p1002
sVMulligan1445
p1003
VN/A
p1004
sVhomicidalfetus
p1005
VN/A
p1006
sViluvmyfamily
p1007
VN/A
p1008
sVcherget
p1009
VN/A
p1010
sVlawlrence
p1011
VN/A
p1012
sVRoxanneANDLilly
p1013
VN/A
p1014
sVhaaallleeeyy
p1015
VN/A
p1016
sVCuboner
p1017
VN/A
p1018
sVTCizzlage
p1019
VN/A
p1020
sVIdahoTrees77
p1021
VN/A
p1022
sVrubenik
p1023
Vvensik
p1024
sVSomniSmith
p1025
VN/A
p1026
sVJbojackson
p1027
VN/A
p1028
sVhardfemmewitch
p1029
VN/A
p1030
sVchebsss
p1031
VN/A
p1032
sVBonkotsu89
p1033
VN/A
p1034
sVHavartiParty
p1035
VN/A
p1036
sVdunnowhatnametouse
p1037
VN/A
p1038
sVElliottChipmunk
p1039
VN/A
p1040
sVphatcat09
p1041
VN/A
p1042
sVFeversMirrors
p1043
VN/A
p1044
sVMindinMind
p1045
VN/A
p1046
sVserenalunarose
p1047
VN/A
p1048
sVpunkwaitress
p1049
VN/A
p1050
sVasitransmissions
p1051
VN/A
p1052
sVsillysouthgal
p1053
VN/A
p1054
sVSenorPizza
p1055
VN/A
p1056
sVicycreamy
p1057
VN/A
p1058
sValostcause
p1059
VN/A
p1060
sVBOBBmmmmmm
p1061
VN/A
p1062
sVcarlos118
p1063
VN/A
p1064
sVDetached09
p1065
Vglinda_da_good_witch
p1066
sVrerodinohunter
p1067
VN/A
p1068
sVPhilosophyforever
p1069
VN/A
p1070
sVUglyKid95
p1071
VN/A
p1072
sVRedbutter
p1073
VN/A
p1074
sVBeatlejuice1661
p1075
VN/A
p1076
sVMiniMoog
p1077
Viamtheharpy
p1078
sVdutchholland
p1079
Vairmanhand
p1080
sVjarizzle151
p1081
VN/A
p1082
sVEverythingAnything
p1083
VN/A
p1084
sVDwg2003
p1085
VN/A
p1086
sVBangThyHeadChild
p1087
Vwho_is_kaiser_soze
p1088
sVBoopysRevenge
p1089
VN/A
p1090
sVmilota
p1091
VN/A
p1092
sVredditiculousness
p1093
VN/A
p1094
sVyixing
p1095
Vthr
p1096
sVNachoCupcake
p1097
VN/A
p1098
sVdavidreavis
p1099
VN/A
p1100
sVpeppermintsauce
p1101
VN/A
p1102
sVMutatedGamer
p1103
VN/A
p1104
sVkegfreak
p1105
VN/A
p1106
sVloudmast
p1107
Vvinceidon
p1108
sVboardpreppinmedstdnt
p1109
VN/A
p1110
sVmarlark
p1111
VN/A
p1112
sVWallywarus
p1113
VN/A
p1114
sVtommybrohama
p1115
VN/A
p1116
sVvictorm3
p1117
VN/A
p1118
sVZayth
p1119
VN/A
p1120
sVspacierharbor
p1121
VN/A
p1122
sVDankness_Himself
p1123
VN/A
p1124
sVRahvinsix
p1125
Vjayce513
p1126
sVPrego_Interrupted
p1127
VN/A
p1128
sVallfourmykids
p1129
VN/A
p1130
sVwecandoit1
p1131
VN/A
p1132
sVTrainwhistle
p1133
VN/A
p1134
sVjakjg
p1135
VN/A
p1136
sV5yardfacemask
p1137
VN/A
p1138
sVpizzatroll69
p1139
VN/A
p1140
sVMudkipman
p1141
VN/A
p1142
sVduckydoom
p1143
Viamaslacker246
p1144
sVlincoln_loggers
p1145
VN/A
p1146
sVarcnotl
p1147
VN/A
p1148
sVDCFKID12
p1149
VN/A
p1150
sVATC93
p1151
VN/A
p1152
sVmrskimchi
p1153
VN/A
p1154
sVyoung_neil
p1155
VN/A
p1156
sVChronicBoner
p1157
VN/A
p1158
sVEyeSpy_
p1159
VN/A
p1160
sVFreshCitrus
p1161
Volivertw1st
p1162
sVcoltboy
p1163
VN/A
p1164
sVmariorising
p1165
VN/A
p1166
sVGreendragon24
p1167
VN/A
p1168
sVben_durr
p1169
VN/A
p1170
sVKgtv123
p1171
VN/A
p1172
sVr0ss0me
p1173
VN/A
p1174
sVdantondrobot
p1175
VN/A
p1176
sVSPMex760
p1177
VN/A
p1178
sVdjPARADISE
p1179
VN/A
p1180
sVJames1o1o
p1181
VN/A
p1182
sVbunnylove69
p1183
VN/A
p1184
sVyouareadouchebag2
p1185
VN/A
p1186
sVsam678
p1187
VN/A
p1188
sVkimmyjay
p1189
Vodd-one-out
p1190
sVwillowroad
p1191
VN/A
p1192
sVkestrelraiders
p1193
VN/A
p1194
sVAxeltoss
p1195
VN/A
p1196
sVLiquorsnacks
p1197
VN/A
p1198
sVzeeksandroid
p1199
VN/A
p1200
sVmindfragment
p1201
VN/A
p1202
sVrhifooshwah
p1203
VN/A
p1204
sVJayAre88
p1205
VN/A
p1206
sVMamaLuck2x2
p1207
VN/A
p1208
sVF4113N
p1209
VN/A
p1210
sVconsumedbythefire
p1211
VN/A
p1212
sVFlooMad
p1213
Vtanyagal2
p1214
sVTheLastRealAccount
p1215
VN/A
p1216
sVmollymcbutter1
p1217
Vxxwinchell23xx
p1218
sVwishfulsinking
p1219
VN/A
p1220
sVcoppawallap2
p1221
VN/A
p1222
sVreagansquad
p1223
VN/A
p1224
sVhjemisalive
p1225
VN/A
p1226
sVthought_i_hADDhERALL
p1227
VN/A
p1228
sVvanessavanessanessa
p1229
VN/A
p1230
sVlolbbqstain
p1231
VN/A
p1232
sVStepOnYourFunk
p1233
VN/A
p1234
sVtenderrrr
p1235
VN/A
p1236
sVshellsbell
p1237
VN/A
p1238
sVASACschrader
p1239
VN/A
p1240
sVjackfuture87
p1241
VN/A
p1242
sVLxr159
p1243
VN/A
p1244
sVgale_tomlinpeaches
p1245
VN/A
p1246
sVguitarist231
p1247
Vhungrytrex
p1248
sVkittybiscuits
p1249
Vjetboyterp
p1250
sVSkyMuffin
p1251
VN/A
p1252
sVfredcash
p1253
VN/A
p1254
sVhereforaday
p1255
VN/A
p1256
sVVicHoliday
p1257
VN/A
p1258
sVwhydidigotouni
p1259
VN/A
p1260
sVdashindarlin
p1261
VN/A
p1262
sVRaeyus
p1263
VN/A
p1264
sVusctrojangirl
p1265
VN/A
p1266
sVviperansty
p1267
VN/A
p1268
sVHybohead
p1269
VN/A
p1270
sVnoideaman
p1271
VN/A
p1272
sVpist_thera
p1273
VN/A
p1274
sVaslhq
p1275
VN/A
p1276
sVikomimksE
p1277
VN/A
p1278
sVsillyhufflepuff
p1279
VN/A
p1280
sVHideaki02
p1281
Vaboveyou5280
p1282
sVEJSpurrell
p1283
VN/A
p1284
sVniigakimari
p1285
VN/A
p1286
sVmastermodr94
p1287
VN/A
p1288
sVAlokiya
p1289
VN/A
p1290
sVSuperRecoveryMom_
p1291
VN/A
p1292
sVrdarkslayer
p1293
VN/A
p1294
sVowmyjoints
p1295
VN/A
p1296
sVLizzyD86
p1297
VN/A
p1298
sVSimianRex
p1299
VN/A
p1300
sVEvolv3
p1301
VN/A
p1302
sV604nucks
p1303
VN/A
p1304
sVtofaraway4u2hold
p1305
VN/A
p1306
sVkassietullock1
p1307
VN/A
p1308
sVTabor91
p1309
VN/A
p1310
sVdarthfapper
p1311
Vharrisonfire
p1312
sVmellomeh
p1313
Vcutfloss
p1314
sVThrashblade
p1315
VN/A
p1316
sVnature_unveiled
p1317
VN/A
p1318
sVNameForMyAccount
p1319
VN/A
p1320
sVpathwaysyorkregion
p1321
VN/A
p1322
sVSirEdward43
p1323
VN/A
p1324
sVGalloJD21
p1325
VN/A
p1326
sVxxrocksteadyxx
p1327
Vdezmodez
p1328
sVTaylerMykel
p1329
VN/A
p1330
sVpeetzathrowaway
p1331
VN/A
p1332
sVmonkeysnarls
p1333
VN/A
p1334
sVLibraryGeekGirl
p1335
VN/A
p1336
sVsfp5005
p1337
VN/A
p1338
sVseanpadraic
p1339
VN/A
p1340
sVdrunkinmilwaukee
p1341
VN/A
p1342
sVDollarMenuHero
p1343
VN/A
p1344
sVi_m_here
p1345
VN/A
p1346
sVblogger4DC
p1347
VN/A
p1348
sVSeiduna
p1349
VN/A
p1350
sVfluxtor
p1351
VN/A
p1352
sVClicky12
p1353
VN/A
p1354
sVchunk609
p1355
VN/A
p1356
sVSleezy_T
p1357
VN/A
p1358
sVthomrobb
p1359
VN/A
p1360
sVkeikeibug2008
p1361
VN/A
p1362
sVohwouldntitbenice
p1363
VN/A
p1364
sVCannabisCorpse
p1365
VN/A
p1366
sVgeauxreddit
p1367
VN/A
p1368
sVTheWorldmind
p1369
VN/A
p1370
sVemajoranna
p1371
Vdalidala
p1372
sVaggiecath14
p1373
VN/A
p1374
sVCyrusTheRed
p1375
VN/A
p1376
sVrushfan801
p1377
VN/A
p1378
sVZaxmaur
p1379
VN/A
p1380
sVbelonii
p1381
VN/A
p1382
sVslomotion
p1383
VN/A
p1384
sVsushisamurai90
p1385
VN/A
p1386
sVAndroidAR
p1387
VN/A
p1388
sVmcFLOW
p1389
VN/A
p1390
sVcaitwheatener
p1391
VN/A
p1392
sViguessimnic
p1393
VN/A
p1394
sVdajensen
p1395
VN/A
p1396
sVprincessemily30
p1397
VN/A
p1398
sVtommygunner91
p1399
VN/A
p1400
sVrawrimapanda
p1401
VN/A
p1402
sVglendaliontamer
p1403
VN/A
p1404
sVhullobirdy
p1405
VN/A
p1406
sVgabachini
p1407
VN/A
p1408
sVcloudpelt
p1409
VN/A
p1410
sVoconnell1103
p1411
VN/A
p1412
sVDamien_666
p1413
VN/A
p1414
sVquistis1189
p1415
VN/A
p1416
sVjojo913
p1417
VN/A
p1418
sVajdl334
p1419
VN/A
p1420
sVhappycheese86
p1421
VN/A
p1422
sVStoopiBird
p1423
VN/A
p1424
sVregularITdude
p1425
VN/A
p1426
sVgetya
p1427
VN/A
p1428
sVMSopenMyMind85
p1429
Vpastafariantwit
p1430
sVincubus809
p1431
VN/A
p1432
sVnekosune
p1433
VN/A
p1434
sVKevRose
p1435
VN/A
p1436
sVPlamZ
p1437
VN/A
p1438
sVRUPTURED_ASSHOLE
p1439
VN/A
p1440
sVBellsie
p1441
VN/A
p1442
sVpokemom667
p1443
VN/A
p1444
sVdell90wattac
p1445
VN/A
p1446
sVthewaterballoonist
p1447
Vnelliebean
p1448
sVtroj4nk1ng
p1449
VN/A
p1450
sVChevy000
p1451
VN/A
p1452
sVMeghanReneex0
p1453
VN/A
p1454
sVHardWorkingWoman
p1455
VN/A
p1456
sVforceuser
p1457
VN/A
p1458
sVhovding
p1459
VN/A
p1460
sVeelassirak
p1461
VN/A
p1462
sVthegurth
p1463
VN/A
p1464
sVJC08
p1465
VN/A
p1466
sVchristian_smith
p1467
VN/A
p1468
sVlilmissy91
p1469
VN/A
p1470
sVmorose_
p1471
VN/A
p1472
sVPlastic0Cow
p1473
VN/A
p1474
sVreallycouldusefood
p1475
VN/A
p1476
sVCovenfather
p1477
VN/A
p1478
sVgalwayjedi
p1479
VN/A
p1480
sVHadouken2012
p1481
VN/A
p1482
sVluhhhren
p1483
VN/A
p1484
sV20TL12III
p1485
VN/A
p1486
sVSonoskeAkigawa
p1487
VN/A
p1488
sVlolcatcatlol
p1489
VN/A
p1490
sVCHEMO_ALIEN
p1491
VN/A
p1492
sVdr_bruce_banner
p1493
VN/A
p1494
sVkillmesara
p1495
VN/A
p1496
sVleiferic
p1497
VN/A
p1498
sVnotBrit
p1499
VN/A
p1500
sVTRAUMAjunkie
p1501
VN/A
p1502
sVRagingBearFish
p1503
VN/A
p1504
sVKiloTheOperator
p1505
VN/A
p1506
sVgenerichandsomeman
p1507
VN/A
p1508
sVTreeStarr
p1509
VN/A
p1510
sVFlowerChica92
p1511
VN/A
p1512
sVGlynny
p1513
VN/A
p1514
sVHurricaneIreneSucks
p1515
VN/A
p1516
sVohmytvc15
p1517
Vsynth3tk
p1518
sVsaveonesavetheworld
p1519
VN/A
p1520
sVlovinmybabies
p1521
VN/A
p1522
sVworks0fheart
p1523
VN/A
p1524
sVzsnow
p1525
VN/A
p1526
sVrockstarlove2009
p1527
VN/A
p1528
sVTekn0junkie
p1529
VN/A
p1530
sVSephiroths_Bitch
p1531
VN/A
p1532
sVjakebluu
p1533
VN/A
p1534
sVvoxpopulivoxdei
p1535
VN/A
p1536
sVSteve216
p1537
VN/A
p1538
sVAdamGeorge4
p1539
VN/A
p1540
sVaaaashc
p1541
VN/A
p1542
sVWalterGrove
p1543
VN/A
p1544
sVyupitsaslie
p1545
VN/A
p1546
sVAlicia_deaun
p1547
VN/A
p1548
sVstinkinlikerehats88
p1549
VN/A
p1550
sVdomkennedy
p1551
VN/A
p1552
sVArmyofthe12monkeys
p1553
VN/A
p1554
sVayellellwhyesesay
p1555
VN/A
p1556
sVzakattak26
p1557
VN/A
p1558
sVericjraack
p1559
VN/A
p1560
sVsamandthewhale
p1561
VN/A
p1562
sVRuMCaKeS
p1563
VN/A
p1564
sVDamselsAndDragons
p1565
VN/A
p1566
sVAdmiralQuackbar
p1567
VN/A
p1568
sVxyz66
p1569
Vincoherentrant
p1570
sVKyrrd
p1571
VN/A
p1572
sVjplank1983
p1573
VN/A
p1574
sVnosense616
p1575
VN/A
p1576
sVthegreatcanadianehp
p1577
VN/A
p1578
sVRev_Quackers
p1579
VN/A
p1580
sVsiwitt
p1581
VN/A
p1582
sVggcc
p1583
VN/A
p1584
sVtruthinessly
p1585
VN/A
p1586
sVpaultagonist
p1587
VN/A
p1588
sVelephantangelchild
p1589
VSarTim
p1590
sVzeromodulo
p1591
VN/A
p1592
sVsarahh83
p1593
VN/A
p1594
sVslartbarg
p1595
Vwensul
p1596
sVchantel_deaton
p1597
VN/A
p1598
sVvurtigo
p1599
VN/A
p1600
sVdanhalligan
p1601
VN/A
p1602
sVIduna13
p1603
VN/A
p1604
sVRose94
p1605
Vboredaustralian
p1606
sVNovakanator
p1607
VN/A
p1608
sVBambilla
p1609
VN/A
p1610
sVGrungymingo
p1611
VN/A
p1612
sVsandysamom
p1613
VN/A
p1614
sVmatthewscottcollins
p1615
VN/A
p1616
sVDrynian
p1617
Vdirtypaws
p1618
sVriceab76
p1619
VN/A
p1620
sVhumpierbus
p1621
VN/A
p1622
sVsmartsoldier
p1623
VN/A
p1624
sVcondiotti
p1625
VN/A
p1626
sVBowlingrl13
p1627
VN/A
p1628
sVgriz120
p1629
VN/A
p1630
sVhypecat
p1631
VN/A
p1632
sVTankercow
p1633
VN/A
p1634
sVTurkDavidson
p1635
VN/A
p1636
sVcdal06
p1637
VN/A
p1638
sVsamw3d
p1639
VN/A
p1640
sVFeSki
p1641
VN/A
p1642
sVseanbateman7
p1643
VN/A
p1644
sVSophieBulsara
p1645
VN/A
p1646
sVainokun
p1647
VN/A
p1648
sVRP_Fan
p1649
VN/A
p1650
sVDestroyAllWhoShow
p1651
VN/A
p1652
sVshmily16
p1653
VN/A
p1654
sVjack54
p1655
VN/A
p1656
sVKipps34
p1657
VN/A
p1658
sVspunX44
p1659
VN/A
p1660
sVbromac
p1661
VN/A
p1662
sVSteveturds
p1663
VN/A
p1664
sVjoey_z
p1665
VN/A
p1666
sVTheSkeward
p1667
VN/A
p1668
sVPotentiaLSc2
p1669
VN/A
p1670
sVStarlightxUK
p1671
VN/A
p1672
sVmsmisfit138
p1673
Vdaner54
p1674
sVnomyourheartout
p1675
VN/A
p1676
sVsoapbarrace
p1677
Vleochen
p1678
sVCharBrar
p1679
VN/A
p1680
sVithinkimdoingthis
p1681
Vamarkson
p1682
sVSirSquirrel
p1683
VN/A
p1684
sVtruwarier14
p1685
VN/A
p1686
sVDiogo1522
p1687
VN/A
p1688
sVpantherking
p1689
VN/A
p1690
sVipatch
p1691
VN/A
p1692
sVbinarypower
p1693
VN/A
p1694
sVjamesyorkdrake
p1695
VN/A
p1696
sVJoeramos
p1697
VN/A
p1698
sVradioboy
p1699
VN/A
p1700
sVJRBro
p1701
VN/A
p1702
sVMonsterIt
p1703
VN/A
p1704
sVDiegoTheGnome
p1705
VN/A
p1706
sVsirwillis
p1707
VN/A
p1708
sVsamuraisports37
p1709
VN/A
p1710
sVurbancollegekid
p1711
VN/A
p1712
sVieatoctopies
p1713
VN/A
p1714
sVimpispro
p1715
VN/A
p1716
sV14andfunny
p1717
VN/A
p1718
sVcheesepile
p1719
VN/A
p1720
sVyummyfrenchfry
p1721
VN/A
p1722
sVshazztastic
p1723
VN/A
p1724
sVZeeeeBro
p1725
VN/A
p1726
sVjbrinskele
p1727
VN/A
p1728
sVsleazyrider
p1729
VN/A
p1730
sVsaprious
p1731
VN/A
p1732
sVdruid_king9884
p1733
VN/A
p1734
sVdropitonhishead
p1735
VN/A
p1736
sVstarvedin
p1737
Velectronicsnailmail
p1738
sVweedandmountaindew
p1739
VN/A
p1740
sVlonglive_yossarian
p1741
VN/A
p1742
sVpoup_soup_boogie
p1743
Vcyndikins
p1744
sVpasikobri
p1745
VN/A
p1746
sVReallyHungryGuy1
p1747
VN/A
p1748
sVTrixieBastard
p1749
VN/A
p1750
sVstaglord
p1751
VN/A
p1752
sVAshlee418
p1753
VN/A
p1754
sVmisstrace
p1755
VN/A
p1756
sVDonna3
p1757
VN/A
p1758
sVsqeak
p1759
VN/A
p1760
sVSgtSloth
p1761
VN/A
p1762
sVlukiee
p1763
VN/A
p1764
sVGeno42
p1765
VN/A
p1766
sVericishere
p1767
VN/A
p1768
sVBearaidz
p1769
VN/A
p1770
sVMiddleSidePunk
p1771
VN/A
p1772
sVspazmonkey1565
p1773
VN/A
p1774
sVBelumes
p1775
VN/A
p1776
sVphilipschall
p1777
VN/A
p1778
sVmrex2
p1779
VN/A
p1780
sVanalreceiver
p1781
VN/A
p1782
sVTammieK
p1783
VN/A
p1784
sVThrasherAlliance
p1785
VN/A
p1786
sVbklynboy89
p1787
VN/A
p1788
sVblueeyedmommy
p1789
VN/A
p1790
sVApril9321
p1791
VN/A
p1792
sVr502692
p1793
VN/A
p1794
sVApicalmeristem
p1795
VN/A
p1796
sVnuerient
p1797
VN/A
p1798
sVclanksy
p1799
VN/A
p1800
sVhurgh55
p1801
VN/A
p1802
sVyourethatguy
p1803
VN/A
p1804
sVwonkizzle
p1805
VN/A
p1806
sVxuryfluous
p1807
VN/A
p1808
sVfelixvbaldr
p1809
VN/A
p1810
sVKimmikaze78
p1811
Vsumpinlikedat
p1812
sVmightymouz
p1813
VN/A
p1814
sVseriouslyhungry
p1815
VN/A
p1816
sVDireAngel
p1817
VN/A
p1818
sVrussian2013
p1819
VN/A
p1820
sVshini32
p1821
VN/A
p1822
sVNecrizzo
p1823
VN/A
p1824
sVweerdio
p1825
VN/A
p1826
sVkalban777
p1827
VN/A
p1828
sVMrCassian
p1829
VN/A
p1830
sVcowboy_mike
p1831
VN/A
p1832
sVMasterBlaster860
p1833
VN/A
p1834
sVetherealautumn
p1835
VN/A
p1836
sVMmohawkmanN19
p1837
VN/A
p1838
sVReddititorio
p1839
VN/A
p1840
sVHalfGingGhost
p1841
VN/A
p1842
sVindianagirljw
p1843
VN/A
p1844
sVtheRealFattyJ
p1845
VN/A
p1846
sVMrPhatJared
p1847
VN/A
p1848
sVcbodin
p1849
VN/A
p1850
sVgneiss-platypus
p1851
VN/A
p1852
sVsomporn
p1853
VN/A
p1854
sVlogueadam
p1855
VN/A
p1856
sVxvoro
p1857
VN/A
p1858
sVFunkrocker
p1859
VN/A
p1860
sVEgem14
p1861
VN/A
p1862
sVKolkskeggr
p1863
VN/A
p1864
sVNeeps89
p1865
Vabrham_smith
p1866
sVLindaK1988
p1867
VN/A
p1868
sVBewmkin
p1869
VN/A
p1870
sVLol_Cancer
p1871
VN/A
p1872
sVjanon330
p1873
VN/A
p1874
sVyoure-a-cat-gatter
p1875
VN/A
p1876
sVcat-lady-barbie
p1877
VN/A
p1878
sVnaughtybookworm
p1879
VN/A
p1880
sVriotxjess
p1881
Vstillers412
p1882
sVmkolkin
p1883
VN/A
p1884
sVKickerS12X
p1885
VN/A
p1886
sVhighlnder777
p1887
VN/A
p1888
sVmizoungu
p1889
VN/A
p1890
sVBeccadex
p1891
VN/A
p1892
sVannYongASAURUS
p1893
VN/A
p1894
sVElleyena
p1895
VN/A
p1896
sVsnowwhite394
p1897
VN/A
p1898
sVsomedude010
p1899
VN/A
p1900
sVhopefulsarah
p1901
VN/A
p1902
sVHagenDaaz
p1903
VN/A
p1904
sVamericanjerk
p1905
VN/A
p1906
sVMr_Do_do
p1907
VN/A
p1908
sVzoosquirrel
p1909
VN/A
p1910
sVGuyInTheShed
p1911
VN/A
p1912
sVPUNKSHAMAN
p1913
VN/A
p1914
sVKYgirl89
p1915
VN/A
p1916
sVomfgtom
p1917
VN/A
p1918
sVHovdizzle
p1919
VN/A
p1920
sVskrilly
p1921
VN/A
p1922
sVrobyntastic
p1923
VN/A
p1924
sVMyAverageDay
p1925
VN/A
p1926
sVgormanboy
p1927
VN/A
p1928
sVeaglebtc
p1929
VN/A
p1930
sVTofuTakahashi
p1931
VN/A
p1932
sVbigbuzd1
p1933
VN/A
p1934
sVrealizerealeyes
p1935
VN/A
p1936
sVrituyen
p1937
Vcoconutcake
p1938
sVPatmybody
p1939
Vrammikins
p1940
sVriptombosley
p1941
VN/A
p1942
sVhenington
p1943
VN/A
p1944
sVnatemendel
p1945
VN/A
p1946
sVLackspotential
p1947
VN/A
p1948
sVindy_throwaway
p1949
VN/A
p1950
sVThe6ofUS
p1951
VN/A
p1952
sVgracebatmonkey
p1953
Vdyslexicpea
p1954
sVwaitingforthehail
p1955
VN/A
p1956
sVRobotOctopus3000
p1957
VN/A
p1958
sVWillowmaker
p1959
VN/A
p1960
sVJuiceyp
p1961
VN/A
p1962
sVPyroTechnicalnsanity
p1963
VN/A
p1964
sVhentercenter
p1965
VN/A
p1966
sVBoxingcats
p1967
VN/A
p1968
sVCrapturret94
p1969
VN/A
p1970
sVxoyie
p1971
Vdranai
p1972
sVlexifus
p1973
VN/A
p1974
sVTheoritis
p1975
VN/A
p1976
sVmumphster
p1977
VN/A
p1978
sVNick_Dipples
p1979
VN/A
p1980
sVfURRYSUN
p1981
VN/A
p1982
sVCaptJames
p1983
VN/A
p1984
sVDownloadableCheese
p1985
VN/A
p1986
sVtsuto
p1987
VN/A
p1988
sVEpicLakai
p1989
Vblackleatherrain
p1990
sVnancynaturally
p1991
Vtanyagal2
p1992
sVkgrayflix
p1993
VN/A
p1994
sVmonkeytits
p1995
VN/A
p1996
sVWishIWereHere
p1997
Vdonitsu
p1998
sVUmbrellaWolf
p1999
VN/A
p2000
sVlimits55555
p2001
VN/A
p2002
sVoranges_are_tasty
p2003
VN/A
p2004
sVthelaststop
p2005
VN/A
p2006
sVRingoTheSquid
p2007
VN/A
p2008
sVrido98
p2009
VN/A
p2010
sVpacreams
p2011
VN/A
p2012
sVLamRoss
p2013
VN/A
p2014
sVDevbo19
p2015
VN/A
p2016
sVTransparent_Taco
p2017
VN/A
p2018
sVmadmikewindows
p2019
VN/A
p2020
sVdoworkz
p2021
VN/A
p2022
sVNoFoodButLifesGood
p2023
VN/A
p2024
sVShadowXSeeker
p2025
VN/A
p2026
sV3ll3
p2027
VN/A
p2028
sVringokid
p2029
VN/A
p2030
sVMortaLPortaL
p2031
VN/A
p2032
sVr4v5
p2033
VN/A
p2034
sVdrankrobot
p2035
VN/A
p2036
sVclimb0r
p2037
Vanthonybsd
p2038
sVMissBrendaSue
p2039
VN/A
p2040
sVLambke
p2041
VN/A
p2042
sVThe_Wily_Curmudgeon
p2043
VN/A
p2044
sVdizzybum
p2045
VN/A
p2046
sVRory_Gee
p2047
VN/A
p2048
sVpapillae
p2049
VN/A
p2050
sVhungry5742
p2051
VN/A
p2052
sVll0ll0ll0
p2053
Vsbrinkley1104
p2054
sVyohek1301
p2055
VN/A
p2056
sVcurious-creationist
p2057
VN/A
p2058
sVpostfish
p2059
VN/A
p2060
sVKYmommy216
p2061
VN/A
p2062
sVkaynebee
p2063
VN/A
p2064
sVdenise29
p2065
VN/A
p2066
sVsubot
p2067
VN/A
p2068
sVelp9879
p2069
VN/A
p2070
sVgleefulmidget
p2071
VN/A
p2072
sVjessejames204
p2073
VN/A
p2074
sVThunder_Powny
p2075
VN/A
p2076
sVSiouxElk113
p2077
VN/A
p2078
sVblueoctopus
p2079
Vrogers4201
p2080
sVNightsfaded
p2081
Vclouds_rach
p2082
sVFrubah
p2083
VN/A
p2084
sVhungryinfarmville
p2085
VN/A
p2086
sVcscppnoob
p2087
VN/A
p2088
sVlivingincali
p2089
VN/A
p2090
sVlaydee
p2091
VN/A
p2092
sVsawalrath
p2093
VN/A
p2094
sVSulamar
p2095
VN/A
p2096
sVNephrastar
p2097
VKYLE-BROFLOSKI
p2098
sVLHFan23432
p2099
VN/A
p2100
sVBurritoVonBean
p2101
VN/A
p2102
sVxIndirect
p2103
VN/A
p2104
sVbbqchickenisgood
p2105
VN/A
p2106
sVLakerz4life
p2107
VN/A
p2108
sVMansionTheHutt
p2109
VN/A
p2110
sVshizanski
p2111
VN/A
p2112
sVClownpounder2442
p2113
VN/A
p2114
sVBaptise
p2115
VN/A
p2116
sVBobbyJDun
p2117
VN/A
p2118
sVClasstoise
p2119
VN/A
p2120
sVmakemyanniversary
p2121
VN/A
p2122
sVBoomyMan
p2123
VN/A
p2124
sVturfguytx
p2125
VN/A
p2126
sVdandan97
p2127
VN/A
p2128
sVkicking_wing08
p2129
VN/A
p2130
sVAureleah
p2131
VN/A
p2132
sViamagiraff3
p2133
VN/A
p2134
sVRockNRollahAyatollah
p2135
VN/A
p2136
sVdarthjoey91
p2137
VN/A
p2138
sVpcs2012
p2139
VN/A
p2140
sVStoodius
p2141
VN/A
p2142
sVTheDanVail
p2143
VN/A
p2144
sVdefcoxl
p2145
VN/A
p2146
sVdcasey123
p2147
VN/A
p2148
sVbengringo2
p2149
VN/A
p2150
sVSturdybody
p2151
VN/A
p2152
sVfdhfjdfkhd
p2153
VN/A
p2154
sVZombie_Twatz
p2155
VN/A
p2156
sVzodiacfox
p2157
VN/A
p2158
sVFSMLovesYou
p2159
VN/A
p2160
sVdrfeelgood60
p2161
Varsenismzero
p2162
sVNightkind7512
p2163
VN/A
p2164
sVprincessbutch
p2165
VN/A
p2166
sVAbbeyCloister
p2167
VN/A
p2168
sVVesseth
p2169
VN/A
p2170
sVstarfleetofficer
p2171
VN/A
p2172
sVdelkinba
p2173
VN/A
p2174
sVmomdadhelp
p2175
VN/A
p2176
sVPolly10
p2177
Vfogdelune
p2178
sVharryeffingpotter
p2179
VN/A
p2180
sVOHMEGA
p2181
VN/A
p2182
sVsteezy1
p2183
Vcdjpurple
p2184
sVTexanInExile
p2185
VN/A
p2186
sVp0ns
p2187
Vsgeng
p2188
sVxobeckaxo1
p2189
VN/A
p2190
sVgartertrap
p2191
VN/A
p2192
sVallido
p2193
VN/A
p2194
sVScottruss
p2195
VN/A
p2196
sVgwisawesome
p2197
VN/A
p2198
sVPapaOomMowMow
p2199
VN/A
p2200
sVtwopoorstonerchicks
p2201
VN/A
p2202
sVphelpsben
p2203
VN/A
p2204
sVKoroshi
p2205
VN/A
p2206
sVMoofiePizzabagel
p2207
VN/A
p2208
sVMrBoogalu
p2209
VN/A
p2210
sVgirlinacoma
p2211
Vfuzzywumpkis
p2212
sVinstagig
p2213
VN/A
p2214
sVgreyshadow_7
p2215
Vjetboyterp
p2216
sVLachryman
p2217
VBioraiku
p2218
sVgalaxypanda
p2219
VN/A
p2220
sVpreachfreedom
p2221
VN/A
p2222
sVgimmick1025
p2223
VN/A
p2224
sVExelus
p2225
VN/A
p2226
sVKnapkin
p2227
VN/A
p2228
sVderpderper
p2229
VN/A
p2230
sVzerodymeu
p2231
VN/A
p2232
sVriceforlife
p2233
VN/A
p2234
sVrpivonka
p2235
VN/A
p2236
sVJoeF86
p2237
VN/A
p2238
sVSentient_Lichen
p2239
VN/A
p2240
sVShangtia
p2241
VN/A
p2242
sVravens52
p2243
VN/A
p2244
sVbjessicarenee
p2245
VN/A
p2246
sVThrice1337
p2247
VN/A
p2248
sVproFRESHional
p2249
VN/A
p2250
sVtable95
p2251
VN/A
p2252
sVMetiphis
p2253
VN/A
p2254
sVJPiratefish
p2255
VN/A
p2256
sV4215
p2257
VN/A
p2258
sVmitchellmm02
p2259
VN/A
p2260
sVthejollytramp
p2261
VN/A
p2262
sVch2st
p2263
VN/A
p2264
sVlivefox
p2265
VN/A
p2266
sVIpreferbeerinacoozy
p2267
VN/A
p2268
sVTasleus
p2269
VN/A
p2270
sVin5an17y
p2271
VN/A
p2272
sVHannaJamesLee
p2273
VN/A
p2274
sVcmosa
p2275
VN/A
p2276
sVcgillett
p2277
VN/A
p2278
sVZoeysmom
p2279
VN/A
p2280
sVopticbit
p2281
VN/A
p2282
sVdistractedminds
p2283
VN/A
p2284
sVHman07
p2285
VN/A
p2286
sVWaffleman75
p2287
VN/A
p2288
sVkriestla
p2289
VN/A
p2290
sVnosafeharbor
p2291
VN/A
p2292
sVembarrassedinflorida
p2293
VN/A
p2294
sVlilysnape
p2295
VN/A
p2296
sVCoastieThaMostie
p2297
VN/A
p2298
sVsnappergk
p2299
VN/A
p2300
sVmfender7
p2301
VN/A
p2302
sVClurshank
p2303
VN/A
p2304
sVfolxify
p2305
VN/A
p2306
sVmaudib666
p2307
VN/A
p2308
sVchestdumpsupreme
p2309
VN/A
p2310
sVpootytang324
p2311
VN/A
p2312
sVticklemehoho
p2313
VN/A
p2314
sVantgly
p2315
Vbearvivant
p2316
sVmatrim611
p2317
VN/A
p2318
sVvolcomador64
p2319
VN/A
p2320
sVMetroidAndZeldaFan
p2321
VN/A
p2322
sVClemsonLaxer
p2323
VN/A
p2324
sVartisticsubmission
p2325
VN/A
p2326
sVGlisteningDragon
p2327
VN/A
p2328
sVanticipatedgiant
p2329
VN/A
p2330
sVmanyhattedman
p2331
VN/A
p2332
sVbrklyntaylr
p2333
VN/A
p2334
sVhuuuungryredditor
p2335
Vlaz42
p2336
sVKYmommy87
p2337
VN/A
p2338
sVKYmommy84
p2339
VN/A
p2340
sVLexisTerrifico
p2341
VN/A
p2342
sVFragex
p2343
VN/A
p2344
sVChanceMercy
p2345
VN/A
p2346
sVBlackLabel2021
p2347
VN/A
p2348
sVand_so_it_is
p2349
VN/A
p2350
sVfoogrrr
p2351
VN/A
p2352
sVticklesoda
p2353
VN/A
p2354
sVArt1san
p2355
VN/A
p2356
sVInukaza
p2357
VN/A
p2358
sVSatans_Mistress
p2359
VN/A
p2360
sVAfricanSTARFOX
p2361
VN/A
p2362
sVCaveWitch
p2363
VN/A
p2364
sVdamntomfoolery
p2365
VN/A
p2366
sVhavingdizziness
p2367
VN/A
p2368
sVclist440
p2369
VN/A
p2370
sVandthatsthewayitis
p2371
VN/A
p2372
sVGeorgeh212
p2373
VN/A
p2374
sVFindmodestanswer
p2375
VN/A
p2376
sVmixmastermind
p2377
VN/A
p2378
sVShoesWithSouls
p2379
VN/A
p2380
sVjohn_wu
p2381
VN/A
p2382
sVDeodorant23
p2383
VN/A
p2384
sVareraswen
p2385
VN/A
p2386
sVHopeeternal
p2387
VN/A
p2388
sVFatStupidAmerican
p2389
VN/A
p2390
sVUtopianEmpress
p2391
VN/A
p2392
sVpondy_
p2393
VN/A
p2394
sVmattrollz
p2395
VN/A
p2396
sVhilaroo
p2397
VN/A
p2398
sVadrewryan
p2399
VN/A
p2400
sVShiaar
p2401
VN/A
p2402
sVRafiki123
p2403
VN/A
p2404
sVbiffle
p2405
Vjetboyterp
p2406
sVNowwhatdoyoumean
p2407
VN/A
p2408
sVdbrownbear
p2409
Vharrisonfire
p2410
sVPiraticalstyle
p2411
VN/A
p2412
sVJEDI_DIAH
p2413
VN/A
p2414
sVhaox72
p2415
VN/A
p2416
sVPopsiclePadre
p2417
VN/A
p2418
sVRed_Chaos1
p2419
Vgoodgodamighty
p2420
sVmarkthis
p2421
VN/A
p2422
sVIstonian
p2423
VN/A
p2424
sVrootrhythm
p2425
VN/A
p2426
sVstretch_harmstrong
p2427
VN/A
p2428
sVthis-is-my-design
p2429
VN/A
p2430
sVraopdc
p2431
VN/A
p2432
sVdevonjackson
p2433
Vin2itiveact
p2434
sVcorknazty
p2435
VN/A
p2436
sVellomate
p2437
VN/A
p2438
sVBeMySerene
p2439
VN/A
p2440
sVjourney819
p2441
VN/A
p2442
sVgregmuldunna
p2443
VN/A
p2444
sVPaulWR
p2445
VN/A
p2446
sVbitofaboss
p2447
VN/A
p2448
sVzombiedo0d
p2449
VN/A
p2450
sVCupcakeFetish
p2451
VN/A
p2452
sVOscar_Rowsdower
p2453
VDickBaggins
p2454
sVBAH2011
p2455
VN/A
p2456
sVintothesunbeams
p2457
VN/A
p2458
sVshhmile
p2459
Valxbnt
p2460
sVskimzo
p2461
VN/A
p2462
sVAngusthe2nd
p2463
VN/A
p2464
sVhardworkingdad
p2465
VN/A
p2466
sVhandstanding
p2467
VN/A
p2468
sVjmoney73
p2469
VN/A
p2470
sVNerdWith_A_Tan
p2471
VRZF291
p2472
sVroguediamond
p2473
Vjabberworx
p2474
sVSgtWaffles2424
p2475
VN/A
p2476
sVforgottenapostle9
p2477
VN/A
p2478
sVCustardCreamUK
p2479
VN/A
p2480
sVJimmyNinja89
p2481
VN/A
p2482
sVconstantSarcasm
p2483
V1stGenRex
p2484
sVd0nt_b1ink
p2485
Vpizzamom
p2486
sVIsenttheD
p2487
VN/A
p2488
sVLysanias
p2489
VN/A
p2490
sVConservativeVictory
p2491
VN/A
p2492
sVMollyHatchetBabe
p2493
VN/A
p2494
sVmissyx
p2495
VN/A
p2496
sVNeprut
p2497
VN/A
p2498
sVtodayforyuuu
p2499
VN/A
p2500
sVreptarking37
p2501
VN/A
p2502
sVklunkie
p2503
VN/A
p2504
sValmightybob1
p2505
VN/A
p2506
sVKFCatz
p2507
Vbetter_with_salt
p2508
sVhonest_hungry_guy
p2509
VN/A
p2510
sVCrowingNevermore
p2511
VN/A
p2512
sVSmirf311
p2513
VN/A
p2514
sVNastyBigPointyTeeth
p2515
VN/A
p2516
sVSeaTownNems
p2517
VN/A
p2518
sVHashoil
p2519
VN/A
p2520
sVTheGreenJuan
p2521
VN/A
p2522
sVdudewiththebling
p2523
VN/A
p2524
sVmikepence
p2525
VN/A
p2526
sVDakx
p2527
VN/A
p2528
sVciredux
p2529
VN/A
p2530
sVmeltedcheeser
p2531
VN/A
p2532
sVIHaveARagingClue
p2533
VN/A
p2534
sVMrSquish
p2535
VN/A
p2536
sVariqisab0ss
p2537
Vbrightdotcom
p2538
sVikell3
p2539
VN/A
p2540
sVJnorkett
p2541
VN/A
p2542
sVkmtomlin
p2543
VN/A
p2544
sVkbsmom1031
p2545
VN/A
p2546
sVwtfmica
p2547
VN/A
p2548
sVYonderLust
p2549
VN/A
p2550
sVBarry_McCocener
p2551
VN/A
p2552
sVTheycallmeFoxJohnson
p2553
VN/A
p2554
sVJew_Pac
p2555
VN/A
p2556
sVkiss62122
p2557
VN/A
p2558
sVZebattlefieldz
p2559
Vbgoodrbcareful
p2560
sVjedi1354
p2561
VN/A
p2562
sVHornstar19
p2563
VN/A
p2564
sVmercatormapv2
p2565
VN/A
p2566
sVPocYo
p2567
VN/A
p2568
sVkirakas
p2569
VN/A
p2570
sVPanic_Panda
p2571
VN/A
p2572
sVCirri
p2573
VN/A
p2574
sVEngelbertHerpaderp
p2575
VN/A
p2576
sVicbat
p2577
VN/A
p2578
sVOverieaction
p2579
VN/A
p2580
sVDirtyplastix
p2581
VN/A
p2582
sVHaveAMap
p2583
VN/A
p2584
sVquincy_c3
p2585
VN/A
p2586
sVcheyfamily5
p2587
VN/A
p2588
sVrebelwithkidz
p2589
VN/A
p2590
sVToastTheHero
p2591
VN/A
p2592
sVYesIamaWizard
p2593
VN/A
p2594
sVnowantOAG
p2595
VN/A
p2596
sVAshleyTomlinson
p2597
VN/A
p2598
sVwindozxpert
p2599
VN/A
p2600
sVanchorchain
p2601
VN/A
p2602
sVRelkeb
p2603
VN/A
p2604
sVapt0s
p2605
VN/A
p2606
sVd0ze143
p2607
VN/A
p2608
sVThe_reflection
p2609
VN/A
p2610
sVstifflerkatie
p2611
VN/A
p2612
sVmisslindsayv
p2613
VN/A
p2614
sVWheelsandthe-legman
p2615
VN/A
p2616
sVcompton89
p2617
VN/A
p2618
sVbdalebs
p2619
VN/A
p2620
sViswearihaveboobs
p2621
VN/A
p2622
sVNiaEvans008
p2623
VN/A
p2624
sVnotions2011
p2625
VN/A
p2626
sVLittleworldbigheart
p2627
VN/A
p2628
sVkenshira
p2629
VN/A
p2630
sVlaserpony
p2631
VN/A
p2632
sVvisvires
p2633
VN/A
p2634
sVAwesomeIncarnate
p2635
VN/A
p2636
sVa_funsized_gentleman
p2637
VN/A
p2638
sVYoahLow
p2639
VN/A
p2640
sVZMerrell
p2641
VN/A
p2642
sVgrapejuiceisblah
p2643
VN/A
p2644
sVdeathring109
p2645
VN/A
p2646
sVbananaslughippie
p2647
VN/A
p2648
sVzerocoal
p2649
VN/A
p2650
sVTomcatjones
p2651
VN/A
p2652
sVHelpMePliz
p2653
VN/A
p2654
sVAToucanWorthyCaw
p2655
VN/A
p2656
sVDallasrenter
p2657
VN/A
p2658
sVCanzary
p2659
VN/A
p2660
sVgnosnaz
p2661
VN/A
p2662
sVk3kz
p2663
VN/A
p2664
sVfigglefox
p2665
VN/A
p2666
sVhungry4pizzzza
p2667
VN/A
p2668
sVDeviankings
p2669
VN/A
p2670
sV13853211
p2671
VN/A
p2672
sVthelastbandito
p2673
VN/A
p2674
sVunkinhead
p2675
VN/A
p2676
sVGODDAMNLitreOfCOLA
p2677
Vthehopelesswanderer
p2678
sVGO_GREEN_GO_WHITE
p2679
VN/A
p2680
sVDownByLaw524
p2681
VN/A
p2682
sVawwshucks3
p2683
VN/A
p2684
sVanimeneenee
p2685
VN/A
p2686
sVCocomunky
p2687
VN/A
p2688
sVtexashorn352
p2689
VN/A
p2690
sVbabygirl630
p2691
VN/A
p2692
sVnoobatronz
p2693
VN/A
p2694
sVwillendorfmedia
p2695
VN/A
p2696
sVvaloraeon
p2697
VN/A
p2698
sVsergeantbadasses
p2699
VN/A
p2700
sVFreshCrabMEAT
p2701
VN/A
p2702
sVregfox
p2703
VN/A
p2704
sVDaddyM
p2705
VN/A
p2706
sVswilltastic
p2707
Visothien
p2708
sVgumiho9
p2709
VN/A
p2710
sVCallMeLorenzo
p2711
VN/A
p2712
sVedukaycheon
p2713
VN/A
p2714
sVDrWonton
p2715
VN/A
p2716
sVreginaldKRAY
p2717
VN/A
p2718
sVthomasmriddle
p2719
VN/A
p2720
sVHngrySunDevil
p2721
VN/A
p2722
sVArfurTrollington
p2723
VN/A
p2724
sVhalsmypal
p2725
VN/A
p2726
sVsickoframen
p2727
VN/A
p2728
sVMitchellHaaland
p2729
VN/A
p2730
sVDown_But_Not_Out
p2731
VN/A
p2732
sVsapzilla
p2733
VN/A
p2734
sVSallyinCali
p2735
VN/A
p2736
sVdoodle7020
p2737
VN/A
p2738
sVBodybombs
p2739
VN/A
p2740
sVzuggle
p2741
VN/A
p2742
sVCooldude4real123
p2743
VN/A
p2744
sVxEverglowx
p2745
VN/A
p2746
sVLynch_Diggers
p2747
VN/A
p2748
sVcsfromhell
p2749
VN/A
p2750
sVconbel
p2751
Vtuckednip
p2752
sVTheDanthrax
p2753
Vminecraft_is_hipster
p2754
sVkashra
p2755
VN/A
p2756
sVghostofahorse
p2757
VN/A
p2758
sVDrOgdenWernstrom
p2759
VN/A
p2760
sVSweetJesusBatman
p2761
VN/A
p2762
sVgridx
p2763
VN/A
p2764
sVseaLclubbeR11
p2765
VN/A
p2766
sVisolatedmuse
p2767
VN/A
p2768
sVmauvetock
p2769
VN/A
p2770
sVScumbagInc
p2771
VN/A
p2772
sVbusch_chugger
p2773
VN/A
p2774
sVFreeThinkerLee
p2775
Vfancy_lad
p2776
sVswdpwnzdggr
p2777
Vleftnewdigg
p2778
sVlowcountrylurker
p2779
VN/A
p2780
sVcoffeebeans10
p2781
VN/A
p2782
sVbabygiraffe67
p2783
VN/A
p2784
sVJindalunz
p2785
VN/A
p2786
sVSexxyZombie
p2787
VN/A
p2788
sVLiterallyProbably
p2789
Vdezmodez
p2790
sVreavercleaver
p2791
VN/A
p2792
sVmintty92
p2793
VN/A
p2794
sVFurryPurp
p2795
VN/A
p2796
sVGoluxas
p2797
VN/A
p2798
sVTouchingTori
p2799
VN/A
p2800
sVkangaroo2
p2801
VN/A
p2802
sVAppletwist
p2803
VN/A
p2804
sValfadog77
p2805
VN/A
p2806
sVjoealanbrooks
p2807
VN/A
p2808
sVJenmama
p2809
VN/A
p2810
sValansmithee331
p2811
VN/A
p2812
sVTevlarHooperson
p2813
VN/A
p2814
sVtheduke1204
p2815
VN/A
p2816
sVGrimmjow459
p2817
VN/A
p2818
sVmicrosoft301
p2819
VN/A
p2820
sVteacherstudent
p2821
VN/A
p2822
sVhospitaltapes
p2823
Vduckydoom
p2824
sVcorbeeZ
p2825
VN/A
p2826
sVyhwksa
p2827
Vnandorocker
p2828
sVCaviarmy
p2829
VN/A
p2830
sVSurlan
p2831
VN/A
p2832
sVTheWhiteRabbitY2K
p2833
VN/A
p2834
sVCeleryMonster
p2835
Vforeignporn
p2836
sVmj052506
p2837
VN/A
p2838
sVunluckymage
p2839
VN/A
p2840
sVstupidfrikkenthrwawy
p2841
VN/A
p2842
sVA_Lychee_Tree
p2843
VN/A
p2844
sVListenBillyPilgrim
p2845
VN/A
p2846
sVKytyMeowFace
p2847
VN/A
p2848
sVtake_me_home_tonight
p2849
VN/A
p2850
sVthesmall
p2851
VN/A
p2852
sVdavidduckface
p2853
VN/A
p2854
sVzooey_roses
p2855
VN/A
p2856
sVjwilsoncollege
p2857
VN/A
p2858
sVAthardude
p2859
VN/A
p2860
sVToppedOff
p2861
VN/A
p2862
sVIHSV_1855
p2863
VN/A
p2864
sVdanidap22
p2865
VN/A
p2866
sVthebluesharpie
p2867
VN/A
p2868
sVjphillips1975
p2869
VN/A
p2870
sVred_lambda
p2871
VN/A
p2872
sVRayRay17
p2873
VN/A
p2874
sVRuleroftheblind
p2875
Vclearmoon247
p2876
sVmilk_a_wat
p2877
VN/A
p2878
sVPublius0
p2879
VN/A
p2880
sVkerizzle
p2881
VN/A
p2882
sVams2000
p2883
VN/A
p2884
sVawxomecross514
p2885
Vkgros004
p2886
sVTehCourtJester
p2887
VN/A
p2888
sVSEX_LIES_AUDIOTAPE
p2889
VN/A
p2890
sVdeejack
p2891
VN/A
p2892
sVlosermedia
p2893
VN/A
p2894
sVmercrae
p2895
VN/A
p2896
sVdaevonn09
p2897
VN/A
p2898
sVGlioblaster
p2899
VN/A
p2900
sVDairyOnMyBoots
p2901
VN/A
p2902
sVkess0078
p2903
VN/A
p2904
sVSamIsSexah
p2905
VN/A
p2906
sVFuckSunshine
p2907
VN/A
p2908
sVKeeperEUSC
p2909
VN/A
p2910
sVOudamon
p2911
VN/A
p2912
sVstokesthekid
p2913
VN/A
p2914
sVactivitus
p2915
Vjimwll
p2916
sVtobygee
p2917
VN/A
p2918
sVOne_Hit-Combo
p2919
VN/A
p2920
sVgottrawn
p2921
VN/A
p2922
sVGetDisowned
p2923
Vkramapple
p2924
sVdjmevans
p2925
VN/A
p2926
sVashuri2
p2927
VN/A
p2928
sVjustaMOMonreddit
p2929
Verinpierce
p2930
sVmonsterunderthebed
p2931
VN/A
p2932
sVIArePoor
p2933
VN/A
p2934
sVbluehazed
p2935
VN/A
p2936
sVShyShinobi
p2937
VN/A
p2938
sV_silentheartsong
p2939
VN/A
p2940
sVShrumples1997
p2941
VN/A
p2942
sVmakeupthrowaway
p2943
VN/A
p2944
sVSirPoBrinkman
p2945
VN/A
p2946
sVReneeB
p2947
VN/A
p2948
sVTheRecycleBin
p2949
VN/A
p2950
sVKrissp
p2951
VN/A
p2952
sVwhat_the_heil
p2953
VN/A
p2954
sVbanananame
p2955
VN/A
p2956
sVnewredditer2011
p2957
VN/A
p2958
sVgive_this_one_a_go
p2959
VN/A
p2960
sVbuffs37
p2961
VN/A
p2962
sVproudandshamed
p2963
VN/A
p2964
sVsimplynox
p2965
VN/A
p2966
sVthrowaway19888
p2967
VN/A
p2968
sVMattOnADinosaur
p2969
Vwhubbard
p2970
sVntesla1
p2971
VN/A
p2972
sVMsquire
p2973
VN/A
p2974
sVpatmagic
p2975
VN/A
p2976
sVdebracat
p2977
VN/A
p2978
sVcoldsandovercoats
p2979
Vmmmcandy
p2980
sVandreareneeA
p2981
VN/A
p2982
sVJohnSingularity
p2983
VN/A
p2984
sVSisterRayVU
p2985
VN/A
p2986
sVStarTrekStoner
p2987
VN/A
p2988
sVcementsocks
p2989
VN/A
p2990
sVtiffables
p2991
VN/A
p2992
sVpuddems
p2993
VN/A
p2994
sVpbrigh
p2995
VN/A
p2996
sVMikoRiko
p2997
VN/A
p2998
sVEye8urBurrito
p2999
VN/A
p3000
sViamtheriver
p3001
VN/A
p3002
sVMr_Spoon
p3003
VN/A
p3004
sVkittycollar
p3005
VN/A
p3006
sVnectarprotector
p3007
VN/A
p3008
sVChuck_Finnley
p3009
VN/A
p3010
sVMaloVolpe
p3011
VN/A
p3012
sVrobsawesum
p3013
VN/A
p3014
sVtigers12
p3015
VN/A
p3016
sVTroll101Catz
p3017
VN/A
p3018
sVvi1987
p3019
VN/A
p3020
sVSaeka
p3021
VN/A
p3022
sVArcadiaBailey
p3023
VN/A
p3024
sVreplicasex
p3025
VN/A
p3026
sVBurritoDevice
p3027
Vpsm321
p3028
sVvisionaryrabbit
p3029
VN/A
p3030
sVYayNoMoreLurking
p3031
VN/A
p3032
sVdak0tah
p3033
VN/A
p3034
sVautumnchibi
p3035
VN/A
p3036
sVcandyapple08
p3037
VN/A
p3038
sVfreakalicious_mn
p3039
VN/A
p3040
sVkeanuisjesus
p3041
VN/A
p3042
sVTyl3rDurd3n
p3043
VN/A
p3044
sVSith_Empire
p3045
VN/A
p3046
sVcarynlarsen
p3047
VN/A
p3048
sVonbrkenwings
p3049
VN/A
p3050
sVraydinn
p3051
VN/A
p3052
sVstarshyne83
p3053
VN/A
p3054
sVkyrobs
p3055
VN/A
p3056
sVDiggitred
p3057
VN/A
p3058
sVCawstewow
p3059
VN/A
p3060
sVCjaxlyn
p3061
VN/A
p3062
sVBallerinaBonzai
p3063
VN/A
p3064
sVAlacar
p3065
VN/A
p3066
sVKruziikDovahkiin
p3067
VN/A
p3068
sVRDTa
p3069
VN/A
p3070
sVlinford86
p3071
VN/A
p3072
sVdc2040
p3073
VN/A
p3074
sVBlack_Lace_and_Butts
p3075
VN/A
p3076
sVFlessen0
p3077
Vlaneage
p3078
sVMishiiee
p3079
VN/A
p3080
sVRalphMullin
p3081
VN/A
p3082
sVrealbuddha
p3083
VN/A
p3084
sVRosyGraymalkin
p3085
VN/A
p3086
sVmoogle516
p3087
VN/A
p3088
sVwatchtowerwolf
p3089
VN/A
p3090
sVMichaelFay
p3091
VN/A
p3092
sVjestert26
p3093
VN/A
p3094
sVCaffeinewriter
p3095
VN/A
p3096
sVakmlr
p3097
VN/A
p3098
sVrkinghrsppl
p3099
VN/A
p3100
sVDoubleup
p3101
VN/A
p3102
sVMikkee
p3103
VN/A
p3104
sVEinarth
p3105
VN/A
p3106
sVjunior92
p3107
VN/A
p3108
sVCasstraitor
p3109
VN/A
p3110
sVXplatinumXpixeyX
p3111
VN/A
p3112
sVfin4lz3r0
p3113
VN/A
p3114
sVspineapples
p3115
VN/A
p3116
sVanotherred
p3117
VN/A
p3118
sVMaoThatHurt
p3119
VN/A
p3120
sVhogancatalyst
p3121
VN/A
p3122
sVmeowmeowkins
p3123
VN/A
p3124
sVTheDreadGazeebo
p3125
VN/A
p3126
sVtheassassinTC
p3127
VN/A
p3128
sVhebesphalmologist
p3129
VN/A
p3130
sVRainbowStar
p3131
Vboatdude
p3132
sVsandmyth
p3133
VN/A
p3134
sVAnduh
p3135
VN/A
p3136
sVToliver182
p3137
VN/A
p3138
sVwoyervunit
p3139
VN/A
p3140
sVlaurenashley91
p3141
VN/A
p3142
sVMushbroom
p3143
Valrightillwrite2
p3144
sVdarkangelle
p3145
VN/A
p3146
sVStartingOverFresh
p3147
VN/A
p3148
sVMotoguy985
p3149
VN/A
p3150
sVjtown465
p3151
VN/A
p3152
sVGrimDeceiver
p3153
VN/A
p3154
sVjedwin7
p3155
VN/A
p3156
sVaSnuggletummie
p3157
Vi_like_owls
p3158
sVonionsforeyes
p3159
VN/A
p3160
sVIwouldlikeanactofza
p3161
VN/A
p3162
sVhoplessone
p3163
VN/A
p3164
sVsahraehmmz
p3165
VN/A
p3166
sVineedfoodzplz
p3167
VN/A
p3168
sVPand0rah
p3169
Vkramapple
p3170
sVFaaln
p3171
Vpastafarian
p3172
sVfreakwastaken
p3173
VN/A
p3174
sVTommyTenToes
p3175
Vchalt0
p3176
sVarkook
p3177
VN/A
p3178
sVawesoMetrical
p3179
VN/A
p3180
sVthrutheforest
p3181
VN/A
p3182
sVZahel
p3183
VN/A
p3184
sVlljkotaru
p3185
VN/A
p3186
sVtelepathetic_monkey
p3187
VN/A
p3188
sVnamebrand
p3189
VN/A
p3190
sVnothungryifudonteat
p3191
VN/A
p3192
sVmeljwitz
p3193
VN/A
p3194
sVsimple-green
p3195
VN/A
p3196
sVgnobytivarg
p3197
VN/A
p3198
sVreverserain
p3199
VN/A
p3200
sVBarry_Wexler
p3201
VN/A
p3202
sVmllylmn
p3203
VN/A
p3204
sVtkpower
p3205
VN/A
p3206
sVLipsLikeMorphyne
p3207
VN/A
p3208
sVvethan
p3209
VN/A
p3210
sVSomeWebGuy
p3211
VN/A
p3212
sVextrachrispy
p3213
VN/A
p3214
sVmoonkistforlife
p3215
VN/A
p3216
sVQuetz23
p3217
VN/A
p3218
sVItismeHODOR
p3219
VN/A
p3220
sVShinChan101
p3221
VN/A
p3222
sVWhoJahBless
p3223
VN/A
p3224
sVswade22789
p3225
VN/A
p3226
sVSingleMommy87
p3227
VN/A
p3228
sVmonkey1987
p3229
VN/A
p3230
sVMetal-Phoenix
p3231
VN/A
p3232
sVKarusune
p3233
VN/A
p3234
sVgracefulwing
p3235
VN/A
p3236
sVDuitseMusikant
p3237
VN/A
p3238
sVidealdebate
p3239
VN/A
p3240
sVThayet
p3241
VN/A
p3242
sVabscando
p3243
VN/A
p3244
sVNot_Mitch
p3245
VN/A
p3246
sVnbgryusan
p3247
VN/A
p3248
sVthekutterback
p3249
VN/A
p3250
sVXalwine
p3251
VN/A
p3252
sVsincerelymoi
p3253
VN/A
p3254
sVCmdr_Taw
p3255
VN/A
p3256
sVanointednonsense
p3257
VN/A
p3258
sVsticpixie
p3259
VN/A
p3260
sVEzechiel1
p3261
VN/A
p3262
sVnatscigirl
p3263
VN/A
p3264
sVjanell_gagnon
p3265
VN/A
p3266
sVKerdek
p3267
VN/A
p3268
sVMomof4redheads
p3269
VN/A
p3270
sVFirmerFilly
p3271
VN/A
p3272
sVsongandsilence
p3273
VN/A
p3274
sVnemisis54
p3275
VN/A
p3276
sVjlking3
p3277
VN/A
p3278
sVkevinwfick90
p3279
VN/A
p3280
sVPineapplexplorer
p3281
VN/A
p3282
sVColorado222
p3283
VN/A
p3284
sValiveironically
p3285
VN/A
p3286
sVjohnuala
p3287
VN/A
p3288
sVDejashebases
p3289
VN/A
p3290
sVundeclared1744
p3291
VN/A
p3292
sVgrooveboy101
p3293
VN/A
p3294
sVhophopsbarley
p3295
VN/A
p3296
sVthe_viper
p3297
VN/A
p3298
sVkyak12
p3299
VN/A
p3300
sVdelyryum
p3301
VN/A
p3302
sVtrisha_0811
p3303
VN/A
p3304
sVAthiestCowboy
p3305
VN/A
p3306
sVhello_There17
p3307
VN/A
p3308
sVMadjawa
p3309
VN/A
p3310
sVMarcianTobay
p3311
Vpastafariantwit
p3312
sVvictorcruz977
p3313
VN/A
p3314
sVsavemebarryyy
p3315
VN/A
p3316
sVconstantgardener
p3317
VN/A
p3318
sVCoke0
p3319
VN/A
p3320
sVknotonce
p3321
VN/A
p3322
sVPlan9Channel7
p3323
VN/A
p3324
sVPlazzmiK
p3325
VN/A
p3326
sVsheilathen
p3327
Vbenmk
p3328
sVyourlilcowgirl
p3329
VN/A
p3330
sVsupershwee
p3331
VN/A
p3332
sVDeTrueSnyder
p3333
VN/A
p3334
sVarielsncsy
p3335
VN/A
p3336
sVgoldenwookieechild
p3337
VN/A
p3338
sVsuckstobepeople
p3339
VN/A
p3340
sVhotboxing101
p3341
VN/A
p3342
sVI_can_see_you
p3343
VN/A
p3344
sVjfkk
p3345
VN/A
p3346
sVNeverLucky
p3347
VN/A
p3348
sVZombiemold
p3349
VN/A
p3350
sVAshamedForDoingThis
p3351
VN/A
p3352
sVPnpp1817
p3353
VN/A
p3354
sVdangersteveover
p3355
VN/A
p3356
sVTheRealTaryn
p3357
VN/A
p3358
sVILoveFirefly
p3359
VN/A
p3360
sVmonkeyman947
p3361
VN/A
p3362
sVSleepingBeauty2180
p3363
VN/A
p3364
sVjohn_vcu
p3365
VN/A
p3366
sVidogiam
p3367
VN/A
p3368
sVasouthernsun
p3369
VN/A
p3370
sVYoungSerious
p3371
VN/A
p3372
sVSophs_dad
p3373
VN/A
p3374
sVSilvioManuel
p3375
VN/A
p3376
sVmuddyh2o
p3377
VN/A
p3378
sVhiggles5
p3379
VN/A
p3380
sVohem
p3381
Vneogodfather
p3382
sVmrMadKing
p3383
VN/A
p3384
sVSuperBrownBro
p3385
VN/A
p3386
sVAK40Sarah
p3387
VN/A
p3388
sVdarthoptimus
p3389
VN/A
p3390
sVSomewhatMystia
p3391
VN/A
p3392
sVmotob751
p3393
VN/A
p3394
sVHamburglary
p3395
VN/A
p3396
sVpeavey269
p3397
VN/A
p3398
sVwnbaloll
p3399
VN/A
p3400
sVthursdaye
p3401
VN/A
p3402
sVmirlonger
p3403
VN/A
p3404
sVpooncartercash
p3405
VN/A
p3406
sVscbryant
p3407
Vclashin74
p3408
sVgoldenbear_
p3409
VN/A
p3410
sVheyyoudontsaythat
p3411
VN/A
p3412
sVzombisaurusrex
p3413
VN/A
p3414
sVPhysicsGirl
p3415
VN/A
p3416
sVnottsoathletic
p3417
VN/A
p3418
sVleena1004
p3419
VN/A
p3420
sVZeis
p3421
VN/A
p3422
sVAnder1ap
p3423
VN/A
p3424
sVModaru
p3425
VN/A
p3426
sVletroller
p3427
VN/A
p3428
sVchristofrawr
p3429
VN/A
p3430
sVkrizzledizzle
p3431
VN/A
p3432
sV4xCharmed
p3433
VN/A
p3434
sVgingerdoo
p3435
VN/A
p3436
sVdarwin57
p3437
Vjesses_girl
p3438
sVPOTEMrx
p3439
VN/A
p3440
sVgoddamnit_ted
p3441
VN/A
p3442
sVfrizzyburr
p3443
VN/A
p3444
sVherrokatie
p3445
VN/A
p3446
sVhidradenitis
p3447
VN/A
p3448
sValbinotron
p3449
VN/A
p3450
sVeaseintoit
p3451
VN/A
p3452
sVtruthspeakstwice
p3453
VN/A
p3454
sVrikkums
p3455
Vlocuester
p3456
sVPizza___Throwaway123
p3457
VN/A
p3458
sVpungellin
p3459
Vdrownyourfears
p3460
sVdoozerman
p3461
VN/A
p3462
sVProjectile_Muffin
p3463
VN/A
p3464
sVBuffatron
p3465
VN/A
p3466
sVimaguyandiwantagirl
p3467
VN/A
p3468
sVShludleDoodle
p3469
VN/A
p3470
sVmayx
p3471
VN/A
p3472
sVsalmonerd202
p3473
VN/A
p3474
sVmillsman163
p3475
VN/A
p3476
sVramynoodles
p3477
VN/A
p3478
sVperjunk
p3479
VN/A
p3480
sVheyitsthisguy
p3481
VN/A
p3482
sVHardKoreHero
p3483
VN/A
p3484
sVcoffeegirl27
p3485
VN/A
p3486
sVSCATTRON
p3487
VN/A
p3488
sVflyangel2478
p3489
VN/A
p3490
sVthechameleonnn
p3491
VN/A
p3492
sVsnellvillemelvin
p3493
VN/A
p3494
sVoneir0naut0
p3495
VN/A
p3496
sVkubarotfl
p3497
VN/A
p3498
sVDOMOxHAX
p3499
VN/A
p3500
sVUkuleleNoGood
p3501
VN/A
p3502
sVjuggalettagurl
p3503
VN/A
p3504
sVitsaghostagain
p3505
VN/A
p3506
sVksdsim
p3507
VN/A
p3508
sVCreepyCoyote
p3509
Vjleichtman
p3510
sVenderwigout
p3511
VN/A
p3512
sVthenerdal
p3513
VN/A
p3514
sVElliotMontague
p3515
VN/A
p3516
sVrelentlessrobot
p3517
VN/A
p3518
sVSidyBoy13
p3519
VN/A
p3520
sVpizza991
p3521
VN/A
p3522
sVshehulk13
p3523
VN/A
p3524
sVtacohell
p3525
VN/A
p3526
sVStarlurker
p3527
VN/A
p3528
sVArmouredblood
p3529
VN/A
p3530
sVSpartan021
p3531
VN/A
p3532
sVelfinwizard
p3533
VN/A
p3534
sVIashoggoth
p3535
VN/A
p3536
sVPink401k
p3537
VN/A
p3538
sVkar-re
p3539
VN/A
p3540
sVmsnicecat
p3541
VN/A
p3542
sVStyxFish
p3543
VN/A
p3544
sVkj658343
p3545
VN/A
p3546
sVbutterydelight
p3547
VN/A
p3548
sVvivi767
p3549
Vstillurking
p3550
sVdjgizmo
p3551
VN/A
p3552
sVPregnant_and_hungry
p3553
VN/A
p3554
sVToxikk
p3555
VN/A
p3556
sVdeb4te
p3557
VN/A
p3558
sVCreevildead
p3559
VN/A
p3560
sVadnamajean
p3561
VN/A
p3562
sVnicolslaw
p3563
VN/A
p3564
sVmvs11
p3565
VN/A
p3566
sVdrews2012
p3567
VN/A
p3568
sVAnnabelise
p3569
VN/A
p3570
sVSackomatic
p3571
VN/A
p3572
sVmcavopol
p3573
Vperezdev
p3574
sVzephris
p3575
Vdihydrogen_monoxide
p3576
sVborg484
p3577
VN/A
p3578
sVdimestorehood
p3579
VN/A
p3580
sVjimli420
p3581
VN/A
p3582
sVthrowaway-___
p3583
VN/A
p3584
sVsingledad22601
p3585
VN/A
p3586
sVEnraged_Walrus
p3587
VN/A
p3588
sVnurse2067
p3589
VN/A
p3590
sVthisisvienna
p3591
VN/A
p3592
sVcaroline_apathy
p3593
VN/A
p3594
sVcontrolZ
p3595
VN/A
p3596
sVQuadrius
p3597
VN/A
p3598
sVkullus
p3599
Vmr_jeep
p3600
sVmoosebot
p3601
Vbiochrome
p3602
sVbabababigian
p3603
Vknitchick
p3604
sVcwlippincott
p3605
VN/A
p3606
sVRavyn82
p3607
VN/A
p3608
sVkateluvscoffee
p3609
VN/A
p3610
sVaAntelope
p3611
VN/A
p3612
sVDragoon0309
p3613
VN/A
p3614
sVrorysmom1
p3615
VN/A
p3616
sVbrickoftr00th
p3617
VN/A
p3618
sVcheesesquirt4
p3619
VN/A
p3620
sVSerdewerde
p3621
VN/A
p3622
sVLoveyoutwice
p3623
VN/A
p3624
sVDoctorelectricwisdom
p3625
VN/A
p3626
sVselbeh
p3627
VN/A
p3628
sVerinmadams
p3629
VN/A
p3630
sVSaffronWhiteGreen
p3631
VN/A
p3632
sVFlynnWhite
p3633
VN/A
p3634
sVstreetfighter178
p3635
VN/A
p3636
sVsmonz3
p3637
VN/A
p3638
sVNatelieOne
p3639
VYarrg
p3640
sVmedic216
p3641
VN/A
p3642
sVMommyof4girls
p3643
VN/A
p3644
sVCorpusCaveman
p3645
VN/A
p3646
sVTotesmcgotes702
p3647
VN/A
p3648
sVnferguson98
p3649
VN/A
p3650
sVdeimosian
p3651
VN/A
p3652
sVjennyinstereo
p3653
Vstevevstheworld
p3654
sVSpinks
p3655
Vdeborahb45231
p3656
sVNickSProud
p3657
VN/A
p3658
sVcaerul
p3659
VN/A
p3660
sVW1GG3R
p3661
VN/A
p3662
sVgrossboss
p3663
VN/A
p3664
sVDer_Erlkonig
p3665
VN/A
p3666
sVImpreza91
p3667
Vkingkaimaui
p3668
sVmegameg
p3669
VN/A
p3670
sVJustWantSomePizza
p3671
VN/A
p3672
sVexplikit
p3673
VN/A
p3674
sVkcoop91
p3675
VN/A
p3676
sVhungry_lurker_sad_gf
p3677
VN/A
p3678
sVivanbco
p3679
VN/A
p3680
sVTreesHateCoughing
p3681
VN/A
p3682
sVTegaNaft
p3683
VN/A
p3684
sVNapTimeAllTheTime
p3685
VN/A
p3686
sVSafria
p3687
Vbotw
p3688
sVwizardfingers
p3689
VN/A
p3690
sVmcdonaldsdick
p3691
VN/A
p3692
sVdjpedrop
p3693
VN/A
p3694
sVjjr1982
p3695
VN/A
p3696
sVwarzero
p3697
VN/A
p3698
sVtehbo0tab3gga
p3699
VN/A
p3700
sVjorson
p3701
VN/A
p3702
sVjustanassembler
p3703
VN/A
p3704
sVhitno2004
p3705
Vgovalle
p3706
sVthrowaway619
p3707
VN/A
p3708
sVbclark2137
p3709
VN/A
p3710
sVsafari253
p3711
VN/A
p3712
sV3Taylors
p3713
VN/A
p3714
sVROTP
p3715
VN/A
p3716
sVquidam08
p3717
VN/A
p3718
sVspazure
p3719
VN/A
p3720
sVunluckyguy2_0
p3721
VN/A
p3722
sVgertie53
p3723
VN/A
p3724
sVloxias44
p3725
VN/A
p3726
sVBearjewbacca
p3727
VN/A
p3728
sVphasecode
p3729
VN/A
p3730
sVblahsappystuff
p3731
VN/A
p3732
sVdraco619
p3733
VN/A
p3734
sVheifergrl1
p3735
VN/A
p3736
sVCroxxie
p3737
VN/A
p3738
sVduvalrn
p3739
VN/A
p3740
sVcarcinom_a
p3741
VN/A
p3742
sVscarymonsters85
p3743
VN/A
p3744
sVcadderly09
p3745
VN/A
p3746
sVpurplepillowmonsters
p3747
VN/A
p3748
sVelaine_wowza
p3749
VN/A
p3750
sVmisterbuckets
p3751
VN/A
p3752
sVlulz1337
p3753
VN/A
p3754
sVzerust
p3755
VN/A
p3756
sVSanctusorium
p3757
VN/A
p3758
sVbafoonwitaspoon
p3759
VN/A
p3760
sVDan_K_Industries
p3761
VN/A
p3762
sVUltimaac0
p3763
VN/A
p3764
sVjpullman813
p3765
VN/A
p3766
sVarms_of_the_beloved
p3767
VN/A
p3768
sVVagimas
p3769
VN/A
p3770
sVthelandryhat
p3771
VN/A
p3772
sVtx10gold
p3773
VN/A
p3774
sVmj1176
p3775
VN/A
p3776
sVwaterbomb
p3777
VN/A
p3778
sVryoshi
p3779
VN/A
p3780
sVJen159
p3781
VN/A
p3782
sVkillinmesmalls
p3783
VN/A
p3784
sVnephiroth
p3785
VN/A
p3786
sVEpicMuppet
p3787
VN/A
p3788
sVussoldier239
p3789
VN/A
p3790
sVredcoffecup
p3791
VN/A
p3792
sVSlowly_BillCosby
p3793
VN/A
p3794
sVWrathicus
p3795
VN/A
p3796
sVCaremid
p3797
VN/A
p3798
sVhoustonflies
p3799
VN/A
p3800
sVtulsapuppy
p3801
Vmycatownsme
p3802
sVkathy62
p3803
VN/A
p3804
sVMrMischief0220
p3805
VN/A
p3806
sVgdf72295
p3807
VN/A
p3808
sVwaycheck
p3809
VN/A
p3810
sVpurplebootyfox
p3811
VN/A
p3812
sVRiffy
p3813
VN/A
p3814
sVDPT2014
p3815
VN/A
p3816
sVChiSpurger
p3817
VN/A
p3818
sVmeatbawlofdoom
p3819
VN/A
p3820
sVbrokecollegekid13456
p3821
VN/A
p3822
sVTheCr0wned
p3823
VN/A
p3824
sVNewToUni
p3825
VN/A
p3826
sVvveksuvarna
p3827
VN/A
p3828
sVenhancedtrivia
p3829
VN/A
p3830
sVSkwishums
p3831
VN/A
p3832
sVkalikillyou
p3833
VN/A
p3834
sVNnyy
p3835
Vmr_jeep
p3836
sVmrroflpwn
p3837
VN/A
p3838
sVsds554
p3839
VN/A
p3840
sVThe_Smooth_Mexican
p3841
VN/A
p3842
sVReactorofR
p3843
VN/A
p3844
sVSnides05
p3845
VN/A
p3846
sVTiabaybee19
p3847
VN/A
p3848
sVblizake
p3849
VN/A
p3850
sVKegsWithLegs
p3851
VN/A
p3852
sVArizona_Dardonelles
p3853
VN/A
p3854
sVbutteredpotatoman
p3855
Vlivingmaster
p3856
sVdemon8rix
p3857
Vmr_jeep
p3858
sVtwobadfeet
p3859
VN/A
p3860
sVMidlothianer
p3861
VN/A
p3862
sVthevanillacupcake
p3863
VN/A
p3864
sVdetective_donkey_dic
p3865
VN/A
p3866
sVsocalstoner92
p3867
VN/A
p3868
sVThrowAway01890
p3869
VN/A
p3870
sVblindpringles
p3871
VN/A
p3872
sVDGerbil
p3873
VN/A
p3874
sVBabaGurGur
p3875
VN/A
p3876
sVPreggoMcGee
p3877
VN/A
p3878
sVradical_ironic_foe
p3879
VN/A
p3880
sVsuperthrust
p3881
VN/A
p3882
sVForteEX
p3883
VN/A
p3884
sVcherboi
p3885
VN/A
p3886
sVslaughterhome
p3887
VN/A
p3888
sVAniBastion
p3889
VN/A
p3890
sVmidnightwalrus
p3891
VN/A
p3892
sVLibrarianPony
p3893
VN/A
p3894
sVhiho20
p3895
VN/A
p3896
sValyssaraeholden
p3897
VN/A
p3898
sVaaa801
p3899
VN/A
p3900
sVstonerd
p3901
Vpwndcake
p3902
sVf_monk
p3903
VN/A
p3904
sVkrushmatic
p3905
VN/A
p3906
sVBlastdouble59
p3907
VN/A
p3908
sVDeleccles
p3909
Vegmose
p3910
sVgirliegrrrl
p3911
VN/A
p3912
sVCloudDrunk
p3913
VN/A
p3914
sVdamianm
p3915
VN/A
p3916
sVsalsgirl0
p3917
Vgoodguygregirl
p3918
sVpKreate
p3919
VBriguy9876
p3920
sVthenewguy729
p3921
VN/A
p3922
sVMostDrunkest
p3923
VN/A
p3924
sVAnon101248
p3925
VN/A
p3926
sVrojojojo
p3927
VN/A
p3928
sVPhyco_candy
p3929
VN/A
p3930
sVrustyberry
p3931
VN/A
p3932
sVTomBV
p3933
VN/A
p3934
sVGingerSauce
p3935
VN/A
p3936
sVBROtato_
p3937
VN/A
p3938
sVFratriarchofMorgan
p3939
VN/A
p3940
sVRozo-D
p3941
VN/A
p3942
sVkoots55
p3943
VN/A
p3944
sVTrioxin
p3945
VN/A
p3946
sVornascien
p3947
VN/A
p3948
sVAtomicJim
p3949
VN/A
p3950
sVamericanbred
p3951
VN/A
p3952
sVTatertotattack
p3953
VN/A
p3954
sVCSULBHistoryStudent
p3955
VN/A
p3956
sVCLU7CH
p3957
VN/A
p3958
sVlepemetus
p3959
VN/A
p3960
sVIts_Be_A_Spork
p3961
VN/A
p3962
sVRufian2113
p3963
VN/A
p3964
sVumhai
p3965
VN/A
p3966
sVSofistication
p3967
VN/A
p3968
sVbenny8897
p3969
VN/A
p3970
sVEvilhenchman
p3971
VN/A
p3972
sVhmmnotsure
p3973
VN/A
p3974
sVbobafoot17
p3975
VN/A
p3976
sVloser_
p3977
VN/A
p3978
sVhavingshittyday
p3979
VN/A
p3980
sVwizredskin
p3981
VN/A
p3982
sVRhymesWithEloquent
p3983
Vanarchyreigns
p3984
sVEmmaleep
p3985
VN/A
p3986
sVDrBoobian
p3987
VN/A
p3988
sVDarr3njack5on
p3989
VN/A
p3990
sVfuckabees
p3991
VN/A
p3992
sVDarkinu2011
p3993
VN/A
p3994
sVtekno45
p3995
VN/A
p3996
sVonewhosighs
p3997
VN/A
p3998
sVtspike
p3999
VN/A
p4000
sVimalwaysjustme
p4001
VN/A
p4002
sVcahaseler
p4003
VN/A
p4004
sVLovableContrarian
p4005
VN/A
p4006
sVpsychedelicjournal
p4007
VN/A
p4008
sVsarah5121
p4009
VN/A
p4010
sVgiants707
p4011
VN/A
p4012
sVechelonFox
p4013
VN/A
p4014
sVjakefalardeau
p4015
VN/A
p4016
sVAlphaTJH
p4017
Vfatalie
p4018
sVHawaii_Prince
p4019
VN/A
p4020
sVwelackscience
p4021
VN/A
p4022
sVBacong
p4023
VN/A
p4024
sVLiamHubbard
p4025
VN/A
p4026
sVbutthash420
p4027
VN/A
p4028
sVBeautyBalls
p4029
VN/A
p4030
sVrobomims
p4031
VN/A
p4032
sVManiacalLaugh
p4033
VN/A
p4034
sVMeSoCornyyy
p4035
Vcaladriel
p4036
sVkingxanadu
p4037
VN/A
p4038
sVleonhardtz50
p4039
VN/A
p4040
sVSanhael
p4041
VN/A
p4042
sVBawbGnarles
p4043
VN/A
p4044
sVAH_Cheb
p4045
VN/A
p4046
sVsunsetbayus
p4047
VN/A
p4048
sVAlexUrbanec
p4049
VN/A
p4050
sVlemonassassin
p4051
VN/A
p4052
sVDietPepsi20oz
p4053
Vcaladanbrood23
p4054
sVCatLover91
p4055
VN/A
p4056
sVthat_seattle_blue
p4057
VN/A
p4058
sVblunatic
p4059
VN/A
p4060
sVNoTimeLikeToday
p4061
VN/A
p4062
sVAwwik
p4063
VN/A
p4064
sVferpderp29
p4065
VN/A
p4066
sVKlausCin
p4067
VN/A
p4068
sVitscrowdedinhere
p4069
VN/A
p4070
sVPeetrius
p4071
Vbgoodrbcareful
p4072
sVSuirou
p4073
VN/A
p4074
sVgarfieldcompton
p4075
VN/A
p4076
sVSekter89
p4077
VN/A
p4078
sVTrueXuman
p4079
VN/A
p4080
sVkujack
p4081
VN/A
p4082
sV216heightser
p4083
VN/A
p4084
sVSyraMira
p4085
VN/A
p4086
sVcidzeraus
p4087
VN/A
p4088
sVbonerbandit
p4089
VN/A
p4090
sVMobster96
p4091
VN/A
p4092
sVala06
p4093
VN/A
p4094
sVFlesh_Odium
p4095
VN/A
p4096
sVcambionic
p4097
VN/A
p4098
sVTheBravetoaster
p4099
VN/A
p4100
sVpopota
p4101
VN/A
p4102
sVsugardrop
p4103
VN/A
p4104
sVPennSullivan
p4105
VN/A
p4106
sVdrinkthebleach
p4107
VN/A
p4108
sVLoganhxc
p4109
VN/A
p4110
sVLayzeLes
p4111
VN/A
p4112
sVroachellie81
p4113
VN/A
p4114
sVbigsol81
p4115
VN/A
p4116
sVidontknowwhereelse
p4117
VN/A
p4118
sVBeifong
p4119
VN/A
p4120
sVChiramongus
p4121
VN/A
p4122
sVJPenta
p4123
VN/A
p4124
sVMkap3334
p4125
VN/A
p4126
sVtastemycookie
p4127
VN/A
p4128
sVLOVEbritt
p4129
VN/A
p4130
sVBenRiceM
p4131
VN/A
p4132
sVObbyDent
p4133
VN/A
p4134
sVBlassyBlas
p4135
VN/A
p4136
sVanyquestions
p4137
VN/A
p4138
sVjrk190
p4139
VN/A
p4140
sVoprx
p4141
VN/A
p4142
sVSilchasRuin
p4143
VN/A
p4144
sVlittle_twerp
p4145
VN/A
p4146
sVjustinzagar
p4147
VN/A
p4148
sVDropoutCollective
p4149
VN/A
p4150
sVbriansays
p4151
VN/A
p4152
sVDustinm16
p4153
VN/A
p4154
sVSpandexisbad
p4155
Vmassawyrm
p4156
sVRockLobster89
p4157
VN/A
p4158
sVbburchibanez
p4159
Vmy2penniesworth
p4160
sVMajimanidoo
p4161
VN/A
p4162
sVInebb
p4163
VN/A
p4164
sVsweetmommy
p4165
VN/A
p4166
sVlinda011
p4167
VN/A
p4168
sVwastingawayinGA
p4169
VN/A
p4170
sVcrudapples
p4171
VN/A
p4172
sVwadeabaldwin
p4173
VN/A
p4174
sVpleasefeedme
p4175
VN/A
p4176
sVHypotetical_Snowmen
p4177
VN/A
p4178
sVironosora
p4179
VN/A
p4180
sVpreilly72
p4181
VN/A
p4182
sVsmokeydesperado
p4183
VN/A
p4184
sVbilly_buckweed
p4185
VN/A
p4186
sVNarconis
p4187
VN/A
p4188
sVReallyGoodAdvice
p4189
VN/A
p4190
sVbravelittletoaster87
p4191
VN/A
p4192
sVNeedSomeLuck
p4193
VN/A
p4194
sVthefirstjoe
p4195
VN/A
p4196
sVcrypticmeth
p4197
VN/A
p4198
sVaSpanishGoat
p4199
VN/A
p4200
sVthrowaway121518
p4201
VN/A
p4202
sVithicus2
p4203
VN/A
p4204
sVCallofTraviss
p4205
VN/A
p4206
sVczuzak
p4207
VN/A
p4208
sVPurpleSnow
p4209
VN/A
p4210
sVronsbigwig
p4211
VN/A
p4212
sVFireFoxMcCloud
p4213
VN/A
p4214
sVTim9091
p4215
VN/A
p4216
sVcoheedsmonstar
p4217
VN/A
p4218
sVdarrylsandwich
p4219
VN/A
p4220
sVwdouglas37
p4221
VN/A
p4222
sVdalsgaard
p4223
VN/A
p4224
sVdawsonhunter
p4225
VN/A
p4226
sVSnackchez
p4227
VN/A
p4228
sValambert212
p4229
VN/A
p4230
sVpiranhagus
p4231
VN/A
p4232
sVmanmat100
p4233
VN/A
p4234
sVuncamad
p4235
VN/A
p4236
sVLolalawless1
p4237
Vsolanumn
p4238
sVPybr0
p4239
VN/A
p4240
sVWhyArentYouNMyOffice
p4241
VN/A
p4242
sVUlricVonDicktenstein
p4243
VN/A
p4244
sVtrotski
p4245
VN/A
p4246
sVdanbri28
p4247
VN/A
p4248
sVOneSalvie
p4249
VN/A
p4250
sVOthrondir
p4251
VN/A
p4252
sVWarmnewbones
p4253
VN/A
p4254
sVt__mhjr
p4255
Vczhunc
p4256
sVfirefighter190
p4257
VN/A
p4258
sVWestDakota
p4259
VN/A
p4260
sVjaredburstppc
p4261
VN/A
p4262
sVnotandrea
p4263
VN/A
p4264
sVAidenMD
p4265
VN/A
p4266
sVAreYouReadyToReddit
p4267
VN/A
p4268
sVdymphna_Rose
p4269
VN/A
p4270
sVVote_Gravel
p4271
VRyzome
p4272
sVP38sheep
p4273
VN/A
p4274
sVBi_pride13
p4275
VN/A
p4276
sVMHerndz
p4277
VN/A
p4278
sVQueenby
p4279
VN/A
p4280
sVSirRamen
p4281
VN/A
p4282
sVjrhbell
p4283
VN/A
p4284
sVBrilliantBen
p4285
Vwingsalone
p4286
sVLtRift
p4287
VN/A
p4288
sVQRSTUV3
p4289
VN/A
p4290
sVmichel34
p4291
VN/A
p4292
sVkentoss
p4293
VN/A
p4294
sVhappy2pester
p4295
VN/A
p4296
sVggsly
p4297
VN/A
p4298
sVtheriddler41
p4299
VN/A
p4300
sVfamilylife42
p4301
VN/A
p4302
sVMagikarpUsed_Splash
p4303
VN/A
p4304
sVSkyCaptainStarr
p4305
VN/A
p4306
sVTheNamesIrrelevant
p4307
Vglinda_da_good_witch
p4308
sVtimorousme
p4309
VN/A
p4310
sVMaddibon
p4311
VN/A
p4312
sVrdigianni
p4313
VN/A
p4314
sVfrankslittlebeauties
p4315
Vynoty3k
p4316
sVJewBurger
p4317
VN/A
p4318
sVSalemkylar
p4319
VSome1Random
p4320
sVlamefest89
p4321
VN/A
p4322
sV_redman
p4323
Vpineapple_wolf
p4324
sVonesunnyday
p4325
VN/A
p4326
sVJoshatthecarwash
p4327
VN/A
p4328
sVthefatgod
p4329
VN/A
p4330
sVgagamo
p4331
VN/A
p4332
sVdirtmouth
p4333
VN/A
p4334
sValoneandhungry
p4335
VN/A
p4336
sVhelloder2012
p4337
VN/A
p4338
sVjae31670
p4339
VN/A
p4340
sVwhosthat
p4341
VN/A
p4342
sVabedcoolcoolcool
p4343
VN/A
p4344
sVSpectacularJack
p4345
VN/A
p4346
sVJHanleyRed
p4347
VN/A
p4348
sVleafeator
p4349
VN/A
p4350
sVpsychedelicvelocity
p4351
VN/A
p4352
sVSuffistication
p4353
VN/A
p4354
sVNothingMoreAmazing
p4355
VN/A
p4356
sVkittix
p4357
VN/A
p4358
sVanonymister1128
p4359
VN/A
p4360
sVJensmom50225
p4361
VN/A
p4362
sVDisplacedLeprechaun
p4363
VN/A
p4364
sVsoulbash
p4365
Vleftnewdigg
p4366
sVpointy-duck-fart
p4367
VN/A
p4368
sVdc218
p4369
VN/A
p4370
sVstationhollow
p4371
VN/A
p4372
sVdeadhaze35
p4373
VN/A
p4374
sVDidntCatchMuch
p4375
VN/A
p4376
sVIndiePrincess
p4377
VN/A
p4378
sVFembotty
p4379
Vwomg
p4380
sVHarryBlotter
p4381
VN/A
p4382
sVeddie14126
p4383
VN/A
p4384
sVMickySFINE
p4385
VN/A
p4386
sVThe_Peace_Maker
p4387
VN/A
p4388
sVseascaped
p4389
VN/A
p4390
sVlrruben
p4391
VN/A
p4392
sVtreebot
p4393
VN/A
p4394
sValishanh93
p4395
VN/A
p4396
sVCXLVII
p4397
Vlogicday
p4398
sVLeRedditReferee
p4399
VN/A
p4400
sVMRdaBakkle
p4401
VN/A
p4402
sVPibbxtreme
p4403
VN/A
p4404
sVshufflingmulligan
p4405
VN/A
p4406
sVhungrycorpsteacher
p4407
VN/A
p4408
sVkittykatkisses
p4409
VN/A
p4410
sVinfuriated_walmart
p4411
Vevilsalmon
p4412
sVViggerous
p4413
VN/A
p4414
sVAmrasi
p4415
VN/A
p4416
sVapplederringer
p4417
VN/A
p4418
sVnnackle
p4419
VN/A
p4420
sViGunKissYou
p4421
VN/A
p4422
sVburrbit8b
p4423
VN/A
p4424
sVMoxypants
p4425
VN/A
p4426
sVFuturedogwalker
p4427
VN/A
p4428
sVandy_gbert
p4429
VN/A
p4430
sVstardled
p4431
VN/A
p4432
sVHelloMarcOso
p4433
VN/A
p4434
sVCrustyCrabbyLegs
p4435
VN/A
p4436
sVMatt24138
p4437
VN/A
p4438
sVemmuppet
p4439
VN/A
p4440
sVFearlessjay
p4441
VN/A
p4442
sVstormclaw11
p4443
VN/A
p4444
sVjamesf797
p4445
VN/A
p4446
sVdusichka
p4447
VN/A
p4448
sVlilbro
p4449
VN/A
p4450
sVLATViALAURA
p4451
VN/A
p4452
sVmoon_nazi
p4453
VN/A
p4454
sVpuraasneira
p4455
Vjabberworx
p4456
sVpaczkitten
p4457
VN/A
p4458
sVWordwench
p4459
VN/A
p4460
sViMack87
p4461
VN/A
p4462
sVImponaut
p4463
Vpaisley8827
p4464
sVincognito_squirrel
p4465
VN/A
p4466
sVlostincollege
p4467
VN/A
p4468
sVEastToast
p4469
VN/A
p4470
sVnicksknock
p4471
VN/A
p4472
sVCatnipCotters
p4473
Vuninvitedthirteenth
p4474
sVhungrystudent50948
p4475
VN/A
p4476
sVOvarianBarbarian
p4477
VN/A
p4478
sVRageMonkey262
p4479
VN/A
p4480
sVbozowantfood
p4481
VN/A
p4482
sVbeanza
p4483
VN/A
p4484
sVcptsham
p4485
VN/A
p4486
sVjnorthup0620
p4487
Vphoto
p4488
sVaceagle93
p4489
VN/A
p4490
sVZeBandit
p4491
VN/A
p4492
sVsilverpixiefly
p4493
VN/A
p4494
sVRaiden1312
p4495
VN/A
p4496
sViTwi
p4497
VN/A
p4498
sVbgmrk
p4499
VN/A
p4500
sVDarcDiscordia
p4501
VN/A
p4502
sVshellymitsy
p4503
VN/A
p4504
sVcutthroatpie_new
p4505
VN/A
p4506
sVFears2Phobias
p4507
VN/A
p4508
sVandersoncoopersboner
p4509
VN/A
p4510
sVjreppa
p4511
VN/A
p4512
sVzerovalue0
p4513
VN/A
p4514
sVitsamoreh
p4515
VN/A
p4516
sVold_journal
p4517
VN/A
p4518
sVArielion
p4519
VN/A
p4520
sVczerniana
p4521
Vhermanobluth
p4522
sVtarheelghost
p4523
VN/A
p4524
sVqwertyasdfg123456
p4525
VN/A
p4526
sVHULKONREDDIT
p4527
VN/A
p4528
sVLuh-Luh-Luh-Louie
p4529
VN/A
p4530
sVIndeedInNeedpuhpleas
p4531
VN/A
p4532
sVscebm92
p4533
VN/A
p4534
sVvisionz
p4535
VN/A
p4536
sVthepiranha
p4537
VN/A
p4538
sVSissyE04
p4539
VN/A
p4540
sVlive4jesus
p4541
VN/A
p4542
sVdman8000
p4543
VN/A
p4544
sVacostlyspirit
p4545
VN/A
p4546
sVkmack
p4547
VN/A
p4548
sVomgahpip
p4549
VN/A
p4550
sVRobotBuddha
p4551
Vunmoderated
p4552
sVOvermind172
p4553
VN/A
p4554
sVeira_
p4555
VN/A
p4556
sVnotanothercirclejerk
p4557
VN/A
p4558
sVTotempants
p4559
VN/A
p4560
sVleangle
p4561
VN/A
p4562
sVSafestSafe
p4563
VN/A
p4564
sVbrokenprodigy114
p4565
VN/A
p4566
sVBaileeBloodlust
p4567
VN/A
p4568
sVtheoneandonlynox
p4569
VN/A
p4570
sVtulipsdon
p4571
VN/A
p4572
sVfiestymama77
p4573
VN/A
p4574
sVTwinCties001
p4575
VN/A
p4576
sVrequiredreading11
p4577
VN/A
p4578
sVREMbomb
p4579
VN/A
p4580
sVfurbix
p4581
VN/A
p4582
sVSmurf06
p4583
VN/A
p4584
sVsoutherngent13
p4585
VN/A
p4586
sVclairemarch
p4587
VN/A
p4588
sVcrazedandabused
p4589
VN/A
p4590
sVSDMarine
p4591
VN/A
p4592
sVEncounterJake
p4593
Vdanilee88
p4594
sVkillymays
p4595
VN/A
p4596
sVdeeter16323
p4597
Vinstant_japanese
p4598
sVchmpdog
p4599
VN/A
p4600
sVKyteno
p4601
VN/A
p4602
sVha_rumph
p4603
Vpclinger
p4604
sVMom_DadPlus4
p4605
VN/A
p4606
sVjonkdavis
p4607
VN/A
p4608
sVNotoriousHaze
p4609
VN/A
p4610
sVFierce_Fox
p4611
VN/A
p4612
sVphenomenos
p4613
VN/A
p4614
sVBlaineMissouri
p4615
VN/A
p4616
sViwannababy
p4617
VN/A
p4618
sVEdgarthefish
p4619
VN/A
p4620
sViheartbaconsalt
p4621
VN/A
p4622
sVpon_de_rring
p4623
Vzandyman
p4624
sVforeverchamone
p4625
VN/A
p4626
sVthrow81204
p4627
VN/A
p4628
sVallieeilla
p4629
Vdanteburning
p4630
sVbeset_by_wanderlust
p4631
VN/A
p4632
sVhungryindebt
p4633
VN/A
p4634
sVJai_panda
p4635
VN/A
p4636
sVphrozen1
p4637
VN/A
p4638
sVlksd
p4639
VN/A
p4640
sVrobotbuttsex
p4641
VN/A
p4642
sVmacdrai
p4643
VN/A
p4644
sVTesticleTophat
p4645
Vtwister17
p4646
sVchantel_9
p4647
VN/A
p4648
sVpandapat
p4649
Vbridgetonarnia
p4650
sVGenital_Dropkick
p4651
VN/A
p4652
sVDanderson78
p4653
VN/A
p4654
sVzmesmer
p4655
VN/A
p4656
sVGhostOfDonLaFontaine
p4657
VN/A
p4658
sVxainthelimit
p4659
VN/A
p4660
sVilikebluepens
p4661
VN/A
p4662
sVnientara
p4663
Vtanyagal2
p4664
sVObscureAgain
p4665
VN/A
p4666
sVrockacessor
p4667
VN/A
p4668
sVi_here
p4669
VN/A
p4670
sVpoopdedoop
p4671
VN/A
p4672
sValefnull
p4673
VN/A
p4674
sVsandwiches_are_real
p4675
VN/A
p4676
sVskoorbat
p4677
VN/A
p4678
sVdabeeisme
p4679
VN/A
p4680
sVJazzClutchKick
p4681
VN/A
p4682
sVcarmenlrp
p4683
VN/A
p4684
sVAbsintheHaze
p4685
VN/A
p4686
sVughmothers
p4687
VN/A
p4688
sVRapalla
p4689
VN/A
p4690
sVrhiz0me
p4691
VN/A
p4692
sVBluesmanfromthepast
p4693
VN/A
p4694
sVinf4nticide
p4695
VN/A
p4696
sVdmitche
p4697
VN/A
p4698
sVelsieghost
p4699
VN/A
p4700
sVportablefan
p4701
Vmr_jeep
p4702
sVWhiskey_Joe
p4703
Vwchill
p4704
sVcrumcakes
p4705
VN/A
p4706
sVascendingorder
p4707
VN/A
p4708
sVCharlieWhoop
p4709
VN/A
p4710
sVnyan_kitty1024
p4711
VN/A
p4712
sVwendybyrdie
p4713
VN/A
p4714
sVmrsdiederich
p4715
VN/A
p4716
sVXelaIsPwn
p4717
VN/A
p4718
sVpwhiller
p4719
V_kill-fx_
p4720
sVgreen323
p4721
VN/A
p4722
sVjmartin21
p4723
VN/A
p4724
sVFryulator
p4725
VN/A
p4726
sVk1llmewithaspork
p4727
VN/A
p4728
sV122david
p4729
VN/A
p4730
sVspacedout83
p4731
Vfrankreynolds
p4732
sVOnlyHero
p4733
VN/A
p4734
sVThrowaway_Mark9
p4735
VN/A
p4736
sVJackal115
p4737
VN/A
p4738
sVGrazzette
p4739
VN/A
p4740
sVzachthesquid
p4741
Vdsledz
p4742
sVGiantRustyAnchor
p4743
VN/A
p4744
sV7Nantis
p4745
VN/A
p4746
sVLivewireg14
p4747
VN/A
p4748
sVcupcakessss
p4749
VN/A
p4750
sVmsm1ssy
p4751
Vthr
p4752
sVfunctionalmass
p4753
VN/A
p4754
sVRogue2166
p4755
VN/A
p4756
sVOrangeKetchup
p4757
VN/A
p4758
sVAnneal
p4759
VN/A
p4760
sVhungrymom
p4761
VN/A
p4762
sVlucky32
p4763
VN/A
p4764
sVkhonsu
p4765
VN/A
p4766
sVpotently-potable
p4767
VN/A
p4768
sVtoolland
p4769
VN/A
p4770
sVquinlan_wtf
p4771
VN/A
p4772
sVarturh
p4773
VN/A
p4774
sVTheBlueChocobo
p4775
VN/A
p4776
sVjeconti
p4777
VN/A
p4778
sVlost_in_ky
p4779
Viheartsunrise04
p4780
sVprofessordee
p4781
VN/A
p4782
sVApeWithACellphone
p4783
VN/A
p4784
sVfoxmakeba
p4785
VN/A
p4786
sVmurp21
p4787
VN/A
p4788
sVhungry4food
p4789
VN/A
p4790
sVKeevtara
p4791
Vgratefulstringcheese
p4792
sVveertamizhan
p4793
VN/A
p4794
sVwaffletoast
p4795
VN/A
p4796
sVredditnoob15
p4797
VN/A
p4798
sVXtaC23
p4799
VN/A
p4800
sVhungryirishman
p4801
VN/A
p4802
sVThe_Correctionist
p4803
VN/A
p4804
sVpuffinmaster86
p4805
Videm22
p4806
sVWittyWebHandle
p4807
VN/A
p4808
sVstrif3
p4809
VN/A
p4810
sVdrunkenmonkeybrigade
p4811
VN/A
p4812
sVsibleyma
p4813
VN/A
p4814
sVdionysus220
p4815
VN/A
p4816
sVTheMoves
p4817
VN/A
p4818
sVVyvanse
p4819
VN/A
p4820
sVUrbano35
p4821
VN/A
p4822
sVcomrade-cupcake
p4823
VN/A
p4824
sVPsychochan
p4825
Vmkeanon
p4826
sVcmb3497
p4827
VN/A
p4828
sVPumpkinpizza
p4829
VN/A
p4830
sVlurklurklurkwonder
p4831
VN/A
p4832
sVJamzicorn
p4833
VN/A
p4834
sVlinuxauditor
p4835
VN/A
p4836
sVthe_sweetest_fetus
p4837
VN/A
p4838
sVcloverling
p4839
VN/A
p4840
sVNomsfud
p4841
Vfogdelune
p4842
sVKattattacks
p4843
VN/A
p4844
sVcleverusername404
p4845
VN/A
p4846
sVJackKerdouc
p4847
VN/A
p4848
sVWeapon_X94
p4849
VN/A
p4850
sVlobad
p4851
VN/A
p4852
sVgrimblegromble3
p4853
VN/A
p4854
sVMagdaEss
p4855
VN/A
p4856
sVajthesecond
p4857
Vraopanon
p4858
sVRaeko
p4859
VN/A
p4860
sVcsheely17
p4861
VN/A
p4862
sVTheChineseHipster
p4863
VN/A
p4864
sVblackowiak
p4865
VN/A
p4866
sVSmokecan
p4867
VN/A
p4868
sVstephen_stills
p4869
VN/A
p4870
sVlilyrae
p4871
VN/A
p4872
sVbrianmoon
p4873
VN/A
p4874
sVAlliery
p4875
VN/A
p4876
sVdidyouhearmekitten
p4877
VN/A
p4878
sVGenghisKhan87
p4879
VN/A
p4880
sVtali3sin
p4881
VN/A
p4882
sVPostsCrapPuns
p4883
VN/A
p4884
sVdr0idx
p4885
VN/A
p4886
sVdave_stiles
p4887
VN/A
p4888
sVgodissayingthistoyou
p4889
VN/A
p4890
sVdeadport
p4891
VN/A
p4892
sVsweetluc
p4893
VN/A
p4894
sVxvaquilavx
p4895
VN/A
p4896
sVOccamRager
p4897
VN/A
p4898
sVRebelLion_HalfBrain
p4899
VN/A
p4900
sVAllSkrewedUp
p4901
Veetzatrap1300
p4902
sVsome_weird_guy
p4903
VN/A
p4904
sVEaeelil
p4905
Vtanyagal2
p4906
sVllo64
p4907
VN/A
p4908
sVSomeGuyWithABoner
p4909
VN/A
p4910
sVdecandentandsymetric
p4911
VN/A
p4912
sVthedragbible
p4913
VN/A
p4914
sVCalmRoc
p4915
VN/A
p4916
sVHEYSYOUSGUYS
p4917
VN/A
p4918
sVJustAnotherPagan
p4919
VN/A
p4920
sVStashigi
p4921
VN/A
p4922
sVlove2fap
p4923
Vniteflirtgirl
p4924
sVkshaw1125
p4925
VN/A
p4926
sVghostleeone
p4927
VN/A
p4928
sVvrane
p4929
VN/A
p4930
sV-Magitek-Armor-
p4931
VN/A
p4932
sVheartagram_ben
p4933
Vbubblegumgills
p4934
sVthewisestwise
p4935
VN/A
p4936
sVsqueeky2
p4937
VN/A
p4938
sVsputnik_
p4939
VN/A
p4940
sVHollownebula
p4941
VN/A
p4942
sVSpeaKeasYSKY
p4943
VN/A
p4944
sVAridane
p4945
VN/A
p4946
sVNotontelevision
p4947
VN/A
p4948
sVdzack
p4949
VN/A
p4950
sVhungry_irish_lass
p4951
VN/A
p4952
sVletyourbeautyunfold
p4953
VN/A
p4954
sVOld_Scratch1
p4955
VN/A
p4956
sVmisty63
p4957
VN/A
p4958
sVxpainisweaknessx
p4959
VN/A
p4960
sVTricker1991
p4961
VN/A
p4962
sVNd4Wd
p4963
VN/A
p4964
sVnickgenova
p4965
VN/A
p4966
sVDirtyMosoeTaint
p4967
VN/A
p4968
sVbenjimt725
p4969
VN/A
p4970
sVgrouperfish
p4971
VN/A
p4972
sVandstuff
p4973
Vyour_never_alone
p4974
sVphobophobia
p4975
VN/A
p4976
sVamcutro
p4977
VN/A
p4978
sVAmpix0
p4979
Vredditg0nad
p4980
sVsandrasko2
p4981
VN/A
p4982
sVkman2015
p4983
VN/A
p4984
sVengineeringENT
p4985
VN/A
p4986
sVMikeBruski
p4987
VN/A
p4988
sVtacodad
p4989
VN/A
p4990
sVInGenUse
p4991
VN/A
p4992
sVBreakGlassRevolution
p4993
VN/A
p4994
sVjatoskep
p4995
VN/A
p4996
sVdakay501
p4997
VN/A
p4998
sVcalvinwylie
p4999
VN/A
p5000
sVRelickey
p5001
VN/A
p5002
sVThe_Nox
p5003
VN/A
p5004
sVskychilde
p5005
VN/A
p5006
sVhostilecarrot
p5007
VN/A
p5008
sVroflolmaocatz
p5009
VN/A
p5010
sVlittelbro14
p5011
VN/A
p5012
sVihopeitsatimemachine
p5013
VN/A
p5014
sVshameaway
p5015
Vreillyboy
p5016
sVCablefist
p5017
VN/A
p5018
sVriob3
p5019
VN/A
p5020
sVblackout517
p5021
VN/A
p5022
sVD_mel_emm
p5023
VN/A
p5024
sVZinjaNombie
p5025
VN/A
p5026
sVbrainswho
p5027
VN/A
p5028
sVdena65
p5029
VN/A
p5030
sVsyntenic
p5031
VN/A
p5032
sVThePotFarmer
p5033
VN/A
p5034
sVcolorblindnick
p5035
Vmazdarx7guy
p5036
sVSisyphusOfMorons
p5037
VN/A
p5038
sVhungrystudents
p5039
VN/A
p5040
sVjeffreydonger
p5041
Vcarseycritter
p5042
sVEdifice_Complex
p5043
VN/A
p5044
sVjmarita1
p5045
VN/A
p5046
sVBigEasyBobcat
p5047
VN/A
p5048
sVdarthnuri
p5049
VN/A
p5050
sVwhowriter
p5051
Vgogogadgetstat
p5052
sVjewlz_austin
p5053
VN/A
p5054
sVbbbreaker
p5055
VN/A
p5056
sVArkanoid0
p5057
VN/A
p5058
sVGangrene
p5059
VN/A
p5060
sVtwinklebeans
p5061
VN/A
p5062
sVmx5miata
p5063
VN/A
p5064
sVcourtnutty
p5065
Vpastafariantwit
p5066
sVTheMagicConch
p5067
VN/A
p5068
sVzimpirate
p5069
Vkigood
p5070
sVMidnight_Aviator
p5071
VN/A
p5072
sVMattGrubbTV
p5073
VN/A
p5074
sViSmirinoff
p5075
VN/A
p5076
sVHomelessKel
p5077
VN/A
p5078
sVDerive1334
p5079
VN/A
p5080
sVXtimmyX
p5081
VN/A
p5082
sVProf_Mordarm
p5083
VN/A
p5084
sVkb13733
p5085
Vphreggs
p5086
sVKruger2147
p5087
VN/A
p5088
sVdrawthings
p5089
VN/A
p5090
sVsupergamerz
p5091
VN/A
p5092
sVMyth_M3thod
p5093
VN/A
p5094
sVSaranghae_sohee
p5095
VN/A
p5096
sVmeeu
p5097
VN/A
p5098
sVpizzaluver
p5099
VN/A
p5100
sVSenor_Wilson
p5101
VN/A
p5102
sVJaimeVenegas
p5103
VN/A
p5104
sVbrokenchairs
p5105
VN/A
p5106
sVMuchAndMore
p5107
VN/A
p5108
sVThomasTheDankEngine
p5109
Vmfbyrne
p5110
sVSt0len
p5111
Vnygalz
p5112
sVlegalizeweedNhookers
p5113
VN/A
p5114
sVFumblezz
p5115
VN/A
p5116
sVcsmcangl
p5117
VN/A
p5118
sVnot-doing-hw
p5119
VN/A
p5120
sVtimhernandez
p5121
VN/A
p5122
sVquestionthequestion
p5123
VN/A
p5124
sVHorseLover91
p5125
VN/A
p5126
sVsoberwhiledrunk
p5127
VN/A
p5128
sVurasandwich
p5129
VN/A
p5130
sVtiki456
p5131
VN/A
p5132
sVsilvery_silver
p5133
VN/A
p5134
sVfw7232
p5135
VN/A
p5136
sVdivafrenchie
p5137
VN/A
p5138
sVveterinarygopher
p5139
VN/A
p5140
sVDoomedJanissary
p5141
Vrainerios
p5142
sVlawliver
p5143
VN/A
p5144
sVphxmommy
p5145
VN/A
p5146
sVpeanutsforall
p5147
VN/A
p5148
sVs0nicfreak
p5149
VN/A
p5150
sVor_me_bender
p5151
VN/A
p5152
sVsaoirse_22
p5153
VN/A
p5154
sVlittlemisspixie
p5155
VN/A
p5156
sVDallasAmigo
p5157
VN/A
p5158
sVHailtheres
p5159
VN/A
p5160
sVOutfoxes
p5161
VN/A
p5162
sVMTDearing
p5163
VN/A
p5164
sVtynosaur
p5165
Vninjaliwa
p5166
sVbearvivant
p5167
VN/A
p5168
sVxHumanity
p5169
VN/A
p5170
sVallryuken
p5171
VN/A
p5172
sVpreggers09
p5173
VN/A
p5174
sVslarson802
p5175
VN/A
p5176
sV20greenshades
p5177
VN/A
p5178
sVSCFamof6
p5179
VN/A
p5180
sVnom-de-reddit
p5181
VN/A
p5182
sVsurfingservants
p5183
VN/A
p5184
sVAnOrangeGent
p5185
VN/A
p5186
sVboboagogo
p5187
VN/A
p5188
sV95DC2
p5189
VN/A
p5190
sVdeathbyramen
p5191
VN/A
p5192
sVLoliSauce
p5193
VN/A
p5194
sVSprgmr
p5195
VN/A
p5196
sVAFunnyThing-
p5197
VN/A
p5198
sVbraddletoad
p5199
VN/A
p5200
sVSwarlley
p5201
VN/A
p5202
sVdunnmyblunt
p5203
VN/A
p5204
sVAboveTheClouds402
p5205
VN/A
p5206
sVTenshik
p5207
VN/A
p5208
sV124418609219
p5209
VN/A
p5210
sVfuckevrythngabouthat
p5211
VN/A
p5212
sVT3ph13
p5213
Vglinda_da_good_witch
p5214
sVridingthewahmbulance
p5215
VN/A
p5216
sVLatvoman
p5217
VN/A
p5218
sVRBIX
p5219
VN/A
p5220
sVBMcFall07
p5221
VN/A
p5222
sVfunkaphant
p5223
VN/A
p5224
sVsteventheman
p5225
VN/A
p5226
sVcigaretteconnoisseur
p5227
VN/A
p5228
sVRichardchambuhs
p5229
VN/A
p5230
sVSkareymc
p5231
VN/A
p5232
sVpapa_mog
p5233
VN/A
p5234
sVdicastio
p5235
VN/A
p5236
sVAlbert_PooBalls
p5237
VN/A
p5238
sVBunnyShuffles
p5239
VN/A
p5240
sVslaughterhouse6
p5241
VN/A
p5242
sVmuffinmonk
p5243
VN/A
p5244
sVill-learn-ya
p5245
VN/A
p5246
sVBedBandit
p5247
VN/A
p5248
sVFzzyWbls
p5249
VN/A
p5250
sVstormtide311
p5251
VN/A
p5252
sVmaximal_crazy
p5253
VN/A
p5254
sVmagusg
p5255
VN/A
p5256
sVpassiton1
p5257
VN/A
p5258
sVcheshirecat76453
p5259
VN/A
p5260
sVFetidFlowers
p5261
Vall_aflunters
p5262
sVxlude22x
p5263
VN/A
p5264
sVprostetnicjeltz
p5265
VN/A
p5266
sVharry-yerawizard
p5267
VN/A
p5268
sVAndrewMufasaaaa
p5269
VN/A
p5270
sVGephoria
p5271
VN/A
p5272
sVtyalah
p5273
VN/A
p5274
sVMrBitterness
p5275
VN/A
p5276
sVpowerbearden
p5277
VN/A
p5278
sVFramingHips
p5279
Vpookie85
p5280
sVjeram92
p5281
VN/A
p5282
sVLuckyKelevra
p5283
VN/A
p5284
sViammattstarkey
p5285
VN/A
p5286
sVenjoi_uk
p5287
VN/A
p5288
sVImissGA
p5289
VN/A
p5290
sVpornoacc
p5291
VN/A
p5292
sVnoflag
p5293
VN/A
p5294
sVZB4F
p5295
VN/A
p5296
sVheybigpancakes
p5297
VN/A
p5298
sVtroll_fail
p5299
VN/A
p5300
sVbocksofwine
p5301
VN/A
p5302
sVCraigFL
p5303
VN/A
p5304
sVHouseboy23
p5305
VN/A
p5306
sVDelilah_Jones
p5307
VN/A
p5308
sVMusika13
p5309
VN/A
p5310
sVRobinadelmann
p5311
VN/A
p5312
sVCatfactsdaily
p5313
VN/A
p5314
sVnotthemama13
p5315
VN/A
p5316
sVMaltMix
p5317
Vminivansareevil
p5318
sVIllyrianKiller
p5319
VN/A
p5320
sVKitsuneominous
p5321
VN/A
p5322
sVi-ride-dragons
p5323
VN/A
p5324
sVblubirdhvn
p5325
VN/A
p5326
sVStux
p5327
VN/A
p5328
sVhippymatt
p5329
VN/A
p5330
sVpasano54
p5331
VN/A
p5332
sVakystics
p5333
Vprovidencepariah
p5334
sVR3divid3r
p5335
VN/A
p5336
sVKoolioKid
p5337
VN/A
p5338
sVbvde85
p5339
VN/A
p5340
sVAnpheus
p5341
VN/A
p5342
sViwontthrowawaypizza
p5343
VN/A
p5344
sVSushiForOne
p5345
VN/A
p5346
sVstagecoach_jay
p5347
VN/A
p5348
sVCaprious
p5349
VN/A
p5350
sVhenley519
p5351
VN/A
p5352
sVreflection700
p5353
VN/A
p5354
sVpeeringwound
p5355
VN/A
p5356
sVsoad3821
p5357
VN/A
p5358
sVahhhhh11
p5359
VN/A
p5360
sVBig_Easy42
p5361
VN/A
p5362
sVJamesTurkey
p5363
VN/A
p5364
sVilyxtina
p5365
VN/A
p5366
sVRALBIN0
p5367
VN/A
p5368
sVrhajing
p5369
VN/A
p5370
sVmrsslowloris
p5371
VN/A
p5372
sVDoctor_of_Recreation
p5373
VN/A
p5374
sVmcj614
p5375
VN/A
p5376
sVintentional_feeding
p5377
VN/A
p5378
sVmrjack92
p5379
VN/A
p5380
sVJenitalia42
p5381
VN/A
p5382
sVPeterMacIrish
p5383
VN/A
p5384
sVjayayeceeohbee
p5385
VN/A
p5386
sVLaguna-Loire
p5387
VN/A
p5388
sVgracefullyawkward
p5389
VN/A
p5390
sVstartrekdentist
p5391
VN/A
p5392
sVgrace613
p5393
VN/A
p5394
sVzemily
p5395
VN/A
p5396
sVheadlightsoff
p5397
VN/A
p5398
sVdamndudewow
p5399
VN/A
p5400
sVMatteosMommy
p5401
VN/A
p5402
sVMrCheungSon
p5403
VN/A
p5404
sVKnight203
p5405
VN/A
p5406
sVelasticlove
p5407
VN/A
p5408
sVKayRice
p5409
VN/A
p5410
sVbeatabout
p5411
VN/A
p5412
sVhive_worker
p5413
VN/A
p5414
sVbigjakefhecake
p5415
VN/A
p5416
sVFemmeFeeTail
p5417
VN/A
p5418
sVBoyofHIIIGGGHH
p5419
VN/A
p5420
sVstarvingglassblower
p5421
VN/A
p5422
sVMaaronClopland
p5423
Vnicko9y
p5424
sVcrg78750
p5425
Vmr_jeep
p5426
sVTyking
p5427
VN/A
p5428
sVnannox3
p5429
VN/A
p5430
sVnapaan
p5431
VN/A
p5432
sVsknabc
p5433
VN/A
p5434
sVkortirion_osgiliath
p5435
VN/A
p5436
sVRelativityPudding
p5437
VN/A
p5438
sVmistakebythecake
p5439
VN/A
p5440
sVkryptonian_knight
p5441
VN/A
p5442
sVhappywaffle
p5443
VN/A
p5444
sVbaconpiex
p5445
VN/A
p5446
sV0110110101101100
p5447
VN/A
p5448
sVSacUp
p5449
VN/A
p5450
sVloadedtomcat
p5451
Vjetboyterp
p5452
sVSpecialCake
p5453
VN/A
p5454
sVrawdoglife
p5455
VN/A
p5456
sVhomeboymcgee
p5457
VN/A
p5458
sVdoutlawjessejames
p5459
VN/A
p5460
sVmeeshkapeesh
p5461
VN/A
p5462
sVkingston_boss
p5463
VN/A
p5464
sVweasler
p5465
VN/A
p5466
sVTEYZO
p5467
VN/A
p5468
sVtigerregjoe
p5469
VN/A
p5470
sVfrom_twelfth_planet
p5471
VN/A
p5472
sVCapricaSix66
p5473
VN/A
p5474
sVbabygirl82
p5475
VN/A
p5476
sVdonbvonb
p5477
VN/A
p5478
sVtortnotes
p5479
VN/A
p5480
sVgetthefuckinmybed
p5481
VN/A
p5482
sV-notagirl-
p5483
VIrritableOwlSyndrome
p5484
sVgowlwolfe
p5485
VN/A
p5486
sVdenalexa13a
p5487
Vanotherguy2
p5488
sVxl_Ruthless_lx
p5489
VN/A
p5490
sViLeeoh
p5491
VN/A
p5492
sVkbiering
p5493
VN/A
p5494
sVkmamrsr
p5495
VN/A
p5496
sVThe_sly_kit
p5497
VN/A
p5498
sVPanoply_of_Thrones
p5499
VN/A
p5500
sVCamoHiddenDJ
p5501
VN/A
p5502
sVDiego_UK
p5503
VN/A
p5504
sVMrAgileBeast
p5505
VN/A
p5506
sVdoinit4lulz
p5507
VN/A
p5508
sVterriblemothra
p5509
VN/A
p5510
sVRealHorrorShowLike
p5511
VN/A
p5512
sVsamwisevimes
p5513
VN/A
p5514
sVEshrinnhero
p5515
VN/A
p5516
sVlogan101
p5517
VN/A
p5518
sVTheGlassface
p5519
VN/A
p5520
sVchairback
p5521
VN/A
p5522
sVFrostatine
p5523
VN/A
p5524
sVMalcaiah
p5525
VN/A
p5526
sVfrogiigreen
p5527
VN/A
p5528
sVpacker69
p5529
VN/A
p5530
sVDenOfThieves
p5531
VN/A
p5532
sVronkhalifa
p5533
VN/A
p5534
sVmoatsmd
p5535
VN/A
p5536
sVLivewirehf
p5537
VN/A
p5538
sVpyratus
p5539
VN/A
p5540
sVItsAgreatday2bealive
p5541
VN/A
p5542
sVasia_kong
p5543
VN/A
p5544
sVrhiesa
p5545
VN/A
p5546
sVSykotik
p5547
Vazzip_oAR
p5548
sVOhpheliac
p5549
Vmorzinbo
p5550
sVcrazyredhead87
p5551
VN/A
p5552
sVimveryhungry
p5553
Vtdralston94
p5554
sVcldumas
p5555
VN/A
p5556
sVelspazzz
p5557
Vtoafka
p5558
sVHunniiBee
p5559
VN/A
p5560
sVelastic-love
p5561
Vsdtacoma
p5562
sVjamespweb
p5563
VN/A
p5564
sVtheostorm
p5565
VN/A
p5566
sVKkayne
p5567
VN/A
p5568
sVLymeMN
p5569
Vsevenzig
p5570
sVSpagherica
p5571
Vdezmodez
p5572
sVPants_Bandit
p5573
VN/A
p5574
sVButthole_Scientist
p5575
VN/A
p5576
sVYupUhhuh
p5577
VN/A
p5578
sVJetlinerX
p5579
VN/A
p5580
sVswoledawg
p5581
VN/A
p5582
sVIdahoSucks
p5583
VN/A
p5584
sVdeuce54
p5585
VN/A
p5586
sVconiferoustrees
p5587
VN/A
p5588
sVskyholmes
p5589
VN/A
p5590
sVcrcmrc
p5591
VN/A
p5592
sVbraverywillfollow
p5593
VN/A
p5594
sVwhatnameisntusedalre
p5595
VN/A
p5596
sVjero2006
p5597
VN/A
p5598
sVJoshybizzle
p5599
VN/A
p5600
sVangryragtimer
p5601
VN/A
p5602
sVphillysaxon
p5603
VN/A
p5604
sVStarstryker
p5605
VN/A
p5606
sVcherriblossom
p5607
VN/A
p5608
sVroyalalez
p5609
VN/A
p5610
sVryancarpenter
p5611
VN/A
p5612
sVre_mix
p5613
VN/A
p5614
sVstrawber
p5615
VN/A
p5616
sVflyenangel
p5617
VN/A
p5618
sVbradhunt5
p5619
VN/A
p5620
sVloganlulz
p5621
VN/A
p5622
sVlovelythots
p5623
VN/A
p5624
sVGaryCarver
p5625
VN/A
p5626
sVSquidlor009
p5627
VN/A
p5628
sVnevertoo
p5629
VN/A
p5630
sVnickstatus
p5631
VN/A
p5632
sVedgeofseventeen
p5633
VN/A
p5634
sVLookRedditNoHands
p5635
VN/A
p5636
sVmdterrapins
p5637
VN/A
p5638
sVTeflon_McDermit
p5639
VN/A
p5640
sVjanlin
p5641
VN/A
p5642
sVseanbyram
p5643
VN/A
p5644
sVrebekkahkins
p5645
VN/A
p5646
sVTheMinks
p5647
VN/A
p5648
sVOatmealOnline
p5649
VN/A
p5650
sVhalounit
p5651
VN/A
p5652
sViamcosmos
p5653
Vwrongwaykid
p5654
sVRRSignalMaintainer
p5655
VN/A
p5656
sVa-wes-ome555
p5657
VN/A
p5658
sVdrslg
p5659
VN/A
p5660
sVPresidentTylerDurden
p5661
VN/A
p5662
sVnjoy101
p5663
VN/A
p5664
sVthefreq
p5665
VN/A
p5666
sVHeisenbergWhitman
p5667
VN/A
p5668
sVTeHMetronomE
p5669
VN/A
p5670
sVAffe48564
p5671
VN/A
p5672
sVCfkid94
p5673
VN/A
p5674
sVSinderelly
p5675
VN/A
p5676
sVrobeth
p5677
VN/A
p5678
sVoops_crash
p5679
VN/A
p5680
sVphosoup
p5681
VN/A
p5682
sVnoperfectplace
p5683
Vghotisgirl06
p5684
sVwinfred
p5685
VN/A
p5686
sVbowling-beauty
p5687
VN/A
p5688
sVanb1990
p5689
VN/A
p5690
sVovers33r
p5691
VN/A
p5692
sVDrawForFood
p5693
VN/A
p5694
sViLiekOwls
p5695
VN/A
p5696
sVHisGreal
p5697
VN/A
p5698
sVaboitic
p5699
VN/A
p5700
sVLessThanLaura
p5701
VN/A
p5702
sVmamatofour
p5703
VN/A
p5704
sVmrshll
p5705
Vcoldheat
p5706
sVZileto
p5707
VN/A
p5708
sVPlaidipus
p5709
VN/A
p5710
sVXeropoint
p5711
VN/A
p5712
sVunfinator
p5713
Vyunododat
p5714
sVdysonlogos
p5715
VN/A
p5716
sVcathilarie
p5717
VN/A
p5718
sVSludge_Hound
p5719
VN/A
p5720
sVUltimetalhead
p5721
VN/A
p5722
sVdutchess_elm
p5723
VN/A
p5724
sVspringwood
p5725
VN/A
p5726
sVdaddeler
p5727
VN/A
p5728
sVlaceyisreallyrad
p5729
VN/A
p5730
sVLarsPlays
p5731
VN/A
p5732
sVinducingnostalgianow
p5733
VN/A
p5734
sV50inshape
p5735
VN/A
p5736
sVtextish
p5737
VN/A
p5738
sVLinnea1972
p5739
VN/A
p5740
sVopinjonated
p5741
VN/A
p5742
sVPudd1nPants
p5743
VN/A
p5744
sVpacweebles
p5745
VN/A
p5746
sVVinnysin
p5747
Vtableofgeeks
p5748
sVDuckMasterFlexxx
p5749
VN/A
p5750
sVnoirefeeling
p5751
VN/A
p5752
sVtapedeckghost
p5753
Vded_reckoning
p5754
sVTheCrimsonArmada
p5755
VN/A
p5756
sVTekken2
p5757
VN/A
p5758
sVCPKsJimboslice
p5759
VN/A
p5760
sVTiredWorkerBee
p5761
VN/A
p5762
sVsuckyswimmer
p5763
VN/A
p5764
sVmo578135
p5765
VN/A
p5766
sVTomtom041890
p5767
VN/A
p5768
sVjonnyg22
p5769
VN/A
p5770
sVskirtgirlie
p5771
VN/A
p5772
sVpittsburghpirate
p5773
VN/A
p5774
sVrhythmmlove
p5775
VN/A
p5776
sVshnn1984
p5777
VN/A
p5778
sVxAbaddon
p5779
VN/A
p5780
sVthenikmarr
p5781
VN/A
p5782
sVheartachetickles
p5783
VN/A
p5784
sVComputersAreFun
p5785
VN/A
p5786
sVWowFantasticBaby
p5787
VN/A
p5788
sVkamajo8991
p5789
VN/A
p5790
sVPpflounder
p5791
VN/A
p5792
sVOreoOrigins
p5793
VN/A
p5794
sVhiyaninja
p5795
VN/A
p5796
sVthrowthisfuckaway
p5797
VN/A
p5798
sV3xdot_3xdash_3xdot
p5799
VN/A
p5800
sVComputer_Baby
p5801
VN/A
p5802
sVopgumby
p5803
VN/A
p5804
sVMilkman41092
p5805
VN/A
p5806
sVIceCreamIsGood
p5807
VN/A
p5808
sVcinemaesque
p5809
VN/A
p5810
sVallenfaigao
p5811
VN/A
p5812
sVapcolleen
p5813
VN/A
p5814
sVsweetcherry88
p5815
VN/A
p5816
sVTheLegionnaire
p5817
VN/A
p5818
sVHernandariguez
p5819
VN/A
p5820
sVConflux
p5821
VN/A
p5822
sVmomto4boys84
p5823
VN/A
p5824
sVbstewart88
p5825
VN/A
p5826
sVNateNasty
p5827
VN/A
p5828
sVDevyDecay
p5829
VN/A
p5830
sVlol2173
p5831
VN/A
p5832
sVkellswastaken
p5833
VN/A
p5834
sVBysanity
p5835
VN/A
p5836
sVthedirtdog
p5837
VN/A
p5838
sVInstz
p5839
VN/A
p5840
sVnaymlis
p5841
VN/A
p5842
sVwuu
p5843
VN/A
p5844
sVcole1209
p5845
VN/A
p5846
sVHungry-Hippo-
p5847
VN/A
p5848
sVUnderoathftw
p5849
VN/A
p5850
sVPresidentGaryJohnson
p5851
VN/A
p5852
sVdamnyousave
p5853
VN/A
p5854
sVYouCanCallMeLiz
p5855
VN/A
p5856
sVpyrex222
p5857
VN/A
p5858
sVhonor646
p5859
VN/A
p5860
sV8245a
p5861
VN/A
p5862
sVdeadparrotx
p5863
VN/A
p5864
sVmcollins999
p5865
VN/A
p5866
sVMyLittleBaconBit
p5867
VN/A
p5868
sVxSquires
p5869
VN/A
p5870
sVA_RUDE_CAT
p5871
VN/A
p5872
sVrose_tyler_fan
p5873
Velementalrain
p5874
sVblameitontheaaambien
p5875
VN/A
p5876
sVShiggityShank
p5877
VN/A
p5878
sVmtrumantigeru
p5879
VN/A
p5880
sVmikesam37
p5881
VN/A
p5882
sVWoffyCoffee
p5883
VN/A
p5884
sVcupcake65
p5885
VN/A
p5886
sVforeveraskeptic
p5887
VN/A
p5888
sVqwertyuiop1024
p5889
VN/A
p5890
sVjessiebug
p5891
VN/A
p5892
sVmarco8_goal
p5893
VN/A
p5894
sVsofkt
p5895
VN/A
p5896
sVmizozozowo
p5897
Vsueolsen
p5898
sVlisagal321
p5899
VN/A
p5900
sVtrickedoutdavid
p5901
VN/A
p5902
sVrdjslittleslut
p5903
VN/A
p5904
sVAttractiveMeat
p5905
VN/A
p5906
sVMsVodkaForBreakfast
p5907
VN/A
p5908
sVVolkgovella
p5909
VN/A
p5910
sVDrshibby
p5911
VN/A
p5912
sVRaven_Madd
p5913
Vosk213
p5914
sVGetintothegame
p5915
VN/A
p5916
sVbarehare
p5917
VN/A
p5918
sVNathanLegend850
p5919
VN/A
p5920
sVn_pazz_420
p5921
VN/A
p5922
sV4xmasbro
p5923
Vjeanralpheo
p5924
sVbeanieb
p5925
Vthenewblueblood
p5926
sVpartytimeusa420
p5927
VN/A
p5928
sVyawnlikeyoumeanit
p5929
Vclarle
p5930
sVWaycho
p5931
VN/A
p5932
sVMartin6040
p5933
VN/A
p5934
sVladyluck1984
p5935
VN/A
p5936
sVawana56
p5937
Vithinkimdoingthis
p5938
sVDextrome92
p5939
VN/A
p5940
sVlukecage43
p5941
VN/A
p5942
sVPringly
p5943
VN/A
p5944
sVgreenskee
p5945
VN/A
p5946
sVadamantium_buster
p5947
VN/A
p5948
sVDrunkenPopTart
p5949
VN/A
p5950
sVaparke41
p5951
VN/A
p5952
sVHESSlAN
p5953
VN/A
p5954
sVSharptastic
p5955
VN/A
p5956
sVbrinkofhumor
p5957
VN/A
p5958
sVAlien_Powered
p5959
VN/A
p5960
sVslagathor51
p5961
Vgenerallyclueless
p5962
sVzanthoroctu
p5963
VN/A
p5964
sVStarcraftPizza
p5965
VN/A
p5966
sVSpeaker4theDead
p5967
VN/A
p5968
sVCpbabes
p5969
VN/A
p5970
sVexodusmachine
p5971
VN/A
p5972
sVevaporated
p5973
VN/A
p5974
sVjaques34
p5975
VN/A
p5976
sVibanghookers94
p5977
VN/A
p5978
sVj14vv
p5979
Vsecretsweetheart
p5980
sVlatenightartist
p5981
VN/A
p5982
sVambertigereyes
p5983
VN/A
p5984
sVTheGrasstheSteakAte
p5985
VN/A
p5986
sVJDBar1215
p5987
VN/A
p5988
sVjack_porter
p5989
VN/A
p5990
sVscoobydo0
p5991
VN/A
p5992
sVracheal1991
p5993
VN/A
p5994
sVCawkii
p5995
VN/A
p5996
sVj41d3n
p5997
Vpuppeteer107
p5998
sVnickx37
p5999
VN/A
p6000
sVbeardykins
p6001
Vjetboyterp
p6002
sVgammarayzzz
p6003
VN/A
p6004
sVaProbl3m
p6005
VN/A
p6006
sVsuperman19703
p6007
VN/A
p6008
sVxsizo
p6009
VN/A
p6010
sVKinematic9
p6011
VN/A
p6012
sV-idk
p6013
VN/A
p6014
sVallisonphillips41892
p6015
VN/A
p6016
sVCrazypenguine
p6017
VN/A
p6018
sVEddieTheHead42
p6019
VN/A
p6020
sVsniperlotte
p6021
VN/A
p6022
sVph0bos
p6023
VN/A
p6024
sVkeebster83
p6025
VN/A
p6026
sVccarr77
p6027
VN/A
p6028
sVthrowawaythisjune
p6029
VN/A
p6030
sVkylenobel
p6031
VN/A
p6032
sVgem37
p6033
VN/A
p6034
sVshavingourbeards
p6035
VN/A
p6036
sVErkmon
p6037
VN/A
p6038
sVJoEsMhOe
p6039
VN/A
p6040
sVCaliToast
p6041
VN/A
p6042
sVtannermorgan
p6043
VN/A
p6044
sVyarnto
p6045
VN/A
p6046
sVJingolo
p6047
VN/A
p6048
sVhungrydad
p6049
VN/A
p6050
sVsterling_mallory
p6051
VN/A
p6052
sVSRowan33
p6053
VN/A
p6054
sVSm314
p6055
VN/A
p6056
sVrgundran87
p6057
VN/A
p6058
sVbucknakid14
p6059
VN/A
p6060
sVMarcusParadis
p6061
VN/A
p6062
sVfletchdoll
p6063
VN/A
p6064
sVkeysersozeweall
p6065
VN/A
p6066
sVANAL_POPCORN
p6067
VN/A
p6068
sVleddmtsu
p6069
VN/A
p6070
sVlove4mydaughter
p6071
VN/A
p6072
sVzattack
p6073
VN/A
p6074
sVjasonmm1979
p6075
VN/A
p6076
sVchrisimmunity
p6077
VN/A
p6078
sVDanjanon
p6079
VN/A
p6080
sVMusicmonsta
p6081
VN/A
p6082
sVFhanky
p6083
VN/A
p6084
sVQQsomeMore
p6085
VN/A
p6086
sVcoranai
p6087
Vcookiedoh
p6088
sVTheKidWantsMilk
p6089
VN/A
p6090
sVsplashdamage
p6091
VN/A
p6092
sVpregosaurusrex
p6093
VN/A
p6094
sVfive_second_rule
p6095
VN/A
p6096
sVBetnyRoseBud
p6097
VN/A
p6098
sVShorei
p6099
VN/A
p6100
sVDwightKurtShrute
p6101
VN/A
p6102
sVEukldin
p6103
VN/A
p6104
sV303win
p6105
Vdeyona
p6106
sVPoorStudentTA
p6107
VN/A
p6108
sVgin_qrwo
p6109
VN/A
p6110
sVruoka
p6111
VN/A
p6112
sVCalypsoCain
p6113
VN/A
p6114
sVmary1993
p6115
VN/A
p6116
sVJonathanJN
p6117
VN/A
p6118
sVDarkenedStar
p6119
VN/A
p6120
sVRenoodleWNDRxxx
p6121
VN/A
p6122
sVMysteryman64
p6123
VN/A
p6124
sVjustanub
p6125
VN/A
p6126
sVKnowltey
p6127
VN/A
p6128
sVkrosenest
p6129
VN/A
p6130
sVumngirl
p6131
VN/A
p6132
sVSourPatchAdult
p6133
VN/A
p6134
sVFelonsHaveFriends
p6135
VN/A
p6136
sVevades83
p6137
VN/A
p6138
sVkaratedude1990
p6139
VN/A
p6140
sVEdapoe
p6141
VN/A
p6142
sVJohnClaymore
p6143
VN/A
p6144
sVkaleidoscopeiis
p6145
VN/A
p6146
sVHippotater
p6147
VN/A
p6148
sV883iron
p6149
VN/A
p6150
sVthe_pawl
p6151
VN/A
p6152
sVFlippy02
p6153
VN/A
p6154
sVSnapdude9
p6155
VN/A
p6156
sVandwilldsaid
p6157
VN/A
p6158
sVmarsolo16
p6159
VN/A
p6160
sVqjb
p6161
VN/A
p6162
sVHintshigen
p6163
VN/A
p6164
sVshhkari
p6165
VN/A
p6166
sVSkorcH333
p6167
VN/A
p6168
sVdriftsc
p6169
VN/A
p6170
sVdmgirl
p6171
VN/A
p6172
sVKatzenklavier
p6173
VN/A
p6174
sVToxicsidewinder
p6175
VN/A
p6176
sVwashyourfruit
p6177
VN/A
p6178
sVsquidpotato
p6179
VN/A
p6180
sVSurprisinglyEdible
p6181
VN/A
p6182
sVSliverPhish
p6183
VN/A
p6184
sVBuju3000
p6185
VN/A
p6186
sVEdgar_A_Poe
p6187
VN/A
p6188
sVwithoutamartyr
p6189
VN/A
p6190
sVCowboylikeme
p6191
VN/A
p6192
sVzedoktar
p6193
VN/A
p6194
sVc0wboigreas3
p6195
VN/A
p6196
sVcuttingagent
p6197
VN/A
p6198
sVimsupercereal4
p6199
VN/A
p6200
sVHungsolo08
p6201
VN/A
p6202
sVOpenFusili
p6203
VN/A
p6204
sVnarwhall
p6205
VN/A
p6206
sVstarboardbow
p6207
VN/A
p6208
sVseveralwolves
p6209
VN/A
p6210
sVMrDrPhizzle
p6211
VN/A
p6212
sVtanrans
p6213
VN/A
p6214
sVRynoke
p6215
VN/A
p6216
sVioiodogy
p6217
VN/A
p6218
sVwolfknight
p6219
VN/A
p6220
sVLovePenguin333
p6221
Vkhalki
p6222
sVdtk320
p6223
VN/A
p6224
sVAlejandrar3
p6225
VN/A
p6226
sVSatheling
p6227
Vscott2chicago
p6228
sVverygenericusername
p6229
VN/A
p6230
sVPIant
p6231
VN/A
p6232
sVladyluck04
p6233
VN/A
p6234
sVw0mpw0mp
p6235
VN/A
p6236
sVMarbhDamhsa
p6237
VN/A
p6238
sVRedOrAlways
p6239
VN/A
p6240
sVstrawberrykiwi1992
p6241
VN/A
p6242
sVDJ_J-Dub
p6243
VN/A
p6244
sVrastafreaks
p6245
VN/A
p6246
sVCosmoRealmer
p6247
VN/A
p6248
sVcyclosity
p6249
VN/A
p6250
sVztfreeman
p6251
VN/A
p6252
sVsexpotato
p6253
VN/A
p6254
sVcriwolv
p6255
Vyommey
p6256
sVDocAtDuq
p6257
VN/A
p6258
sVjtomatzin
p6259
VN/A
p6260
sVPyrohazard
p6261
VN/A
p6262
sVunibody
p6263
VN/A
p6264
sVvictoria87
p6265
VN/A
p6266
sVErronSeth
p6267
VN/A
p6268
sVnerdy_and_nice
p6269
VN/A
p6270
sV4amloco
p6271
VN/A
p6272
sVfunkymunniez
p6273
VN/A
p6274
sVkevka
p6275
Vcgkush
p6276
sVceevar
p6277
Vjohngalt1337
p6278
sVstudentneedingnoms
p6279
VN/A
p6280
sVseabass86
p6281
VN/A
p6282
sVmynameisyoko
p6283
VN/A
p6284
sVLexypinkhair
p6285
VN/A
p6286
sVpost91
p6287
VN/A
p6288
sVwantonviolins
p6289
VN/A
p6290
sVstonerninja
p6291
VN/A
p6292
sVLysdestic
p6293
VN/A
p6294
sVColobos329
p6295
VN/A
p6296
sVjessmanyeah
p6297
VN/A
p6298
sVchris_jed
p6299
VN/A
p6300
sVshmuelb
p6301
VN/A
p6302
sVyeneeko
p6303
VN/A
p6304
sVlisad33611
p6305
VN/A
p6306
sVCommodorJuggles
p6307
VN/A
p6308
sVqueen_mcgina
p6309
VN/A
p6310
sVLlamasOrDucks
p6311
VN/A
p6312
sVJrozario
p6313
VN/A
p6314
sVkmart67620
p6315
VN/A
p6316
sVGrimfromsome
p6317
VN/A
p6318
sVmadamthefifth
p6319
Vaggietimber
p6320
sVwolfbuzz
p6321
VN/A
p6322
sVH00ded
p6323
VN/A
p6324
sVAnjitheBeast
p6325
VN/A
p6326
sViceschade
p6327
Vhrnmyd
p6328
sVVirginityCollector
p6329
VN/A
p6330
sVbromaslav
p6331
VN/A
p6332
sVwinnifredatusf
p6333
VN/A
p6334
sVmrefvem
p6335
VSallyMacLennane
p6336
sVclubs924
p6337
VN/A
p6338
sVKrazeRyo
p6339
VN/A
p6340
sVtpb01
p6341
VN/A
p6342
sVautomatic_bazooti
p6343
VN/A
p6344
sVvelvetcrayon
p6345
VN/A
p6346
sVtxn9
p6347
VN/A
p6348
sVNessa209
p6349
VN/A
p6350
sVfranki3J
p6351
VN/A
p6352
sVeunosben
p6353
VN/A
p6354
sVAracnel
p6355
VN/A
p6356
sVjbeckfox
p6357
VN/A
p6358
sVbr4dleysm0m
p6359
VN/A
p6360
sVsitosanta
p6361
VN/A
p6362
sVzer0hz
p6363
Vpastafariantwit
p6364
sVAnagove
p6365
VN/A
p6366
sVnightynite
p6367
VN/A
p6368
sVkeysarecool
p6369
VN/A
p6370
sVHs_doc
p6371
VN/A
p6372
sVchristmasinmycar
p6373
VN/A
p6374
sVDonkeyGraves
p6375
VN/A
p6376
sVjsdykstra
p6377
VN/A
p6378
sVSaltywounds
p6379
VN/A
p6380
sVbebeschtroumph
p6381
VN/A
p6382
sVsuperherobeasley
p6383
VN/A
p6384
sVultracanery
p6385
VN/A
p6386
sVmicabebecca
p6387
VN/A
p6388
sVGottaMakeIt
p6389
VN/A
p6390
sVFlyingCouch
p6391
VN/A
p6392
sVFoxdieMercury
p6393
VN/A
p6394
sVfeuerzuaschezuasche
p6395
VN/A
p6396
sVMrGoldenVoice
p6397
VN/A
p6398
sVmrbigfun
p6399
VN/A
p6400
sVrastapasta808
p6401
VN/A
p6402
sVwiat09
p6403
VN/A
p6404
sVeverhasbefore
p6405
VN/A
p6406
sVSublime1996
p6407
VN/A
p6408
sVdrowninginpudding
p6409
VN/A
p6410
sVkippythablonde
p6411
VN/A
p6412
sVhautegauche
p6413
Vczhunc
p6414
sVlexsey55
p6415
VN/A
p6416
sVmhortonable
p6417
VN/A
p6418
sVwarchamp7
p6419
Vfastizio6176
p6420
sVfaceless_one
p6421
VN/A
p6422
sVghostmelon
p6423
VN/A
p6424
sVsmokeey
p6425
VN/A
p6426
sVflagman10
p6427
VN/A
p6428
sVPeriodicTableDancer
p6429
VN/A
p6430
sVNickMason01
p6431
VN/A
p6432
sVkimi21
p6433
Vjeremybeadle
p6434
sVboysenburry
p6435
Vcodemonkeylikefritos
p6436
sVsadandworried
p6437
VN/A
p6438
sVMcNicken
p6439
VN/A
p6440
sVthisisentertainment
p6441
VN/A
p6442
sVPelleas
p6443
VN/A
p6444
sValexandrathegr8
p6445
VN/A
p6446
sVgreenbeen1
p6447
Vnathanpaulyoung
p6448
sVasdflayne
p6449
VN/A
p6450
sVkyraxxxlynn
p6451
VN/A
p6452
sVtimecrasher
p6453
VN/A
p6454
sVPlainJain
p6455
VN/A
p6456
sVbeavis81
p6457
VN/A
p6458
sVtrogdorkiller
p6459
VN/A
p6460
sVgettingtherety
p6461
VN/A
p6462
sVcopinters
p6463
VN/A
p6464
sVsariahsara
p6465
VN/A
p6466
sVbreelyair
p6467
VN/A
p6468
sVthadlozen
p6469
VN/A
p6470
sVXxHopex89
p6471
VN/A
p6472
sVmlw4428
p6473
VN/A
p6474
sV0b4m4
p6475
VN/A
p6476
sVSporkhater
p6477
VN/A
p6478
sVLadyBrett
p6479
VN/A
p6480
sVcorestore4moar
p6481
VN/A
p6482
sVdipmyballsinit
p6483
VN/A
p6484
sVillegalDL
p6485
VN/A
p6486
sVLoadChaud
p6487
VN/A
p6488
sVrdwing
p6489
VN/A
p6490
sVwingal
p6491
VN/A
p6492
sVDenise65
p6493
Vjski5711
p6494
sVdarth_boggs
p6495
VN/A
p6496
sVmamaof1
p6497
VN/A
p6498
sVDiggtionary
p6499
VN/A
p6500
sVValaksha
p6501
VN/A
p6502
sVfingerscrossed2
p6503
VN/A
p6504
sVdevouredbylogic
p6505
VN/A
p6506
sVStewieJr
p6507
VN/A
p6508
sVhart1975
p6509
VN/A
p6510
sVldiabl0530
p6511
VN/A
p6512
sVMinnesotaMatt
p6513
VN/A
p6514
sVevondahl
p6515
VN/A
p6516
sVstraitodenim
p6517
VN/A
p6518
sVwithbrolafsaxe
p6519
VN/A
p6520
sVCrusnik909
p6521
Vshort_lurker
p6522
sVSu_Hua
p6523
VN/A
p6524
sVColinFlolin
p6525
VN/A
p6526
sVfunkinwagnallz
p6527
VN/A
p6528
sVMcDoodleFiend
p6529
VN/A
p6530
sVill_use_this_one
p6531
VN/A
p6532
sVangelpuff
p6533
VN/A
p6534
sVdyeam
p6535
VN/A
p6536
sVThat_Black_Kid
p6537
VN/A
p6538
sVbiwley
p6539
VN/A
p6540
sVpopopnoro
p6541
VN/A
p6542
sV3scher
p6543
VN/A
p6544
sVphotography444
p6545
Viamseth
p6546
sVartsya3
p6547
VN/A
p6548
sVGatsbygreat
p6549
VN/A
p6550
sVPorcelainPoet
p6551
Vleftnewdigg
p6552
sVakristacat
p6553
VN/A
p6554
sVGolisten2LennyWhite
p6555
VN/A
p6556
sVmaster_commander
p6557
VN/A
p6558
sVhungryforpizza0000
p6559
VN/A
p6560
sVchrishilldrop
p6561
VN/A
p6562
sVdoublev85
p6563
VN/A
p6564
sVLucy_dog
p6565
VN/A
p6566
sVDonna_Jean
p6567
VN/A
p6568
sVnastyn8k
p6569
VN/A
p6570
sVBottleman
p6571
VReillyBoy
p6572
sVBrotherpain82
p6573
VN/A
p6574
sVdatmunchkin
p6575
VN/A
p6576
sVgolfalien
p6577
VN/A
p6578
sViradescentiris
p6579
VN/A
p6580
sVFull_Time_Gamer
p6581
VN/A
p6582
sVDeborah111111
p6583
VN/A
p6584
sVIvannaJump
p6585
VN/A
p6586
sVzahidraja
p6587
VN/A
p6588
sVomegawoot
p6589
VN/A
p6590
sVthatwholurks
p6591
VN/A
p6592
sVdanroccks
p6593
VN/A
p6594
sVRitalinYourMemory
p6595
VN/A
p6596
sVkiwiness
p6597
VN/A
p6598
sVFmh1667
p6599
VN/A
p6600
sVfrustrationparade
p6601
VN/A
p6602
sVkaysetab
p6603
VN/A
p6604
sVmaohaze
p6605
VN/A
p6606
sVWindel
p6607
Vimperialviolet
p6608
sVOscarWildez
p6609
VN/A
p6610
sVSirHellsing420
p6611
VN/A
p6612
sVmazack
p6613
VN/A
p6614
sVpeahat
p6615
VN/A
p6616
sVthenewnum2
p6617
VN/A
p6618
sVRottenresurrection
p6619
VN/A
p6620
sVyackie
p6621
VN/A
p6622
sVsociallyantisocial
p6623
VN/A
p6624
sVmatcauthion
p6625
VN/A
p6626
sVPrince_Squirtle
p6627
VN/A
p6628
sVPanikinap
p6629
VN/A
p6630
sVhungryman2
p6631
VN/A
p6632
sVshawshank3d
p6633
VN/A
p6634
sVTouglasBoat
p6635
VN/A
p6636
sVsixoverme
p6637
VN/A
p6638
sVttwwrrss
p6639
VN/A
p6640
sVtwfl
p6641
VN/A
p6642
sVTonyaLynn84
p6643
VN/A
p6644
sVblue_pixie
p6645
VN/A
p6646
sVShitOnTheWayToWork
p6647
VN/A
p6648
sVZoobileeZooRules
p6649
VN/A
p6650
sVJbudsss
p6651
VN/A
p6652
sVGlass_of_Milk
p6653
VN/A
p6654
sVhakura11
p6655
VN/A
p6656
sVskinnytie
p6657
VN/A
p6658
sVsphygmoman
p6659
VN/A
p6660
sVSeattleShrew
p6661
VN/A
p6662
sVdeusahominis
p6663
VN/A
p6664
sVchristbeatty
p6665
Vmmmcandy
p6666
sVtroyroyroy
p6667
VN/A
p6668
sVMorticianofFaith
p6669
VN/A
p6670
sVchriscosta77
p6671
Vch31415
p6672
sVKB1101
p6673
VN/A
p6674
sVBatMasterson5
p6675
VN/A
p6676
sVnorromin
p6677
VN/A
p6678
sVlasertits69
p6679
VN/A
p6680
sVgootray
p6681
Vastrogliide
p6682
sVMikey85
p6683
VN/A
p6684
sVmeonhere
p6685
VN/A
p6686
sVi_poop_more_than_u
p6687
VN/A
p6688
sVtjsbabymama
p6689
VN/A
p6690
sVmcdxi11
p6691
VN/A
p6692
sVdeborah124
p6693
VN/A
p6694
sVCyclingTom
p6695
VN/A
p6696
sVBehindaLensinBigSky
p6697
VN/A
p6698
sVEcyg
p6699
Vthreedice
p6700
sVrobotbeard
p6701
VN/A
p6702
sVNew_Computer315
p6703
VN/A
p6704
sVFwob
p6705
VN/A
p6706
sVKicken
p6707
VN/A
p6708
sVmelancholymaze
p6709
VN/A
p6710
sVmicrolotus
p6711
VN/A
p6712
sVSpiritdad
p6713
VN/A
p6714
sVkillerd
p6715
VN/A
p6716
sVNefariousStray
p6717
VN/A
p6718
sVKappn
p6719
Vin2itiveact
p6720
sVnjdevils2626
p6721
Vbceltics933
p6722
sVjezekiant
p6723
VN/A
p6724
sVdoc_brietz
p6725
VN/A
p6726
sVnetizenbane
p6727
Vladyjanegr
p6728
sVcherrysweet
p6729
VN/A
p6730
sVBumblescump45
p6731
VN/A
p6732
sVboner_sushi
p6733
VN/A
p6734
sVGayballs
p6735
VN/A
p6736
sVscared_of_dad
p6737
VN/A
p6738
sVcbooth0818
p6739
VN/A
p6740
sVlucette_van
p6741
VN/A
p6742
sVuptownpatti
p6743
VN/A
p6744
sVLakesideHerbology
p6745
VFelipe_O
p6746
sVsamtastic2
p6747
VN/A
p6748
sVichooseyoupika2
p6749
VN/A
p6750
sV3-17-12
p6751
VN/A
p6752
sVslipnslide91
p6753
Vmonkeyhouse
p6754
sVkarmicmoondreams
p6755
VN/A
p6756
sVinfrastructure
p6757
VN/A
p6758
sVredditluvr11
p6759
VN/A
p6760
sVfingerblastic
p6761
VN/A
p6762
sVanigavnisinep
p6763
VN/A
p6764
sVMyusernameisfunny
p6765
VN/A
p6766
sVcarraway
p6767
VN/A
p6768
sVtrojanman42
p6769
VN/A
p6770
sVKayleemarie19
p6771
VN/A
p6772
sVBomani_Jones
p6773
VN/A
p6774
sVIWillBeatThis
p6775
VN/A
p6776
sVskull_glitch
p6777
VDEStudent
p6778
sVNastidon
p6779
VN/A
p6780
sVMalphystoh
p6781
VN/A
p6782
sVdurden87
p6783
VN/A
p6784
sVdarkwingfuck
p6785
VN/A
p6786
sVFhoxx
p6787
VN/A
p6788
sVdickobags
p6789
VN/A
p6790
sV8bitd1ck
p6791
VN/A
p6792
sVdjbartos93
p6793
VN/A
p6794
sVheyturtle
p6795
VN/A
p6796
sVxX_Jon_Boehner_Xx
p6797
VN/A
p6798
sVLynnReid1971
p6799
VN/A
p6800
sVPatticus06
p6801
VN/A
p6802
sVwyliegirl
p6803
VN/A
p6804
sVlisechen
p6805
VN/A
p6806
sVMajesticTowerOfHats
p6807
VN/A
p6808
sVLunaa
p6809
VN/A
p6810
sVomglazers
p6811
VN/A
p6812
sVdylanausing
p6813
VN/A
p6814
sVSeepThreepEO
p6815
VN/A
p6816
sVSkywolfBloodraven
p6817
VN/A
p6818
sVMegaMayhem
p6819
VN/A
p6820
sVradium-v
p6821
VN/A
p6822
sVsarahxxxsora
p6823
VN/A
p6824
sV87Eric
p6825
VN/A
p6826
sVbugsinamber
p6827
Vidtugyourboat
p6828
sVmellytorado
p6829
VN/A
p6830
sVEscape92
p6831
VN/A
p6832
sVLeminnes
p6833
VN/A
p6834
sVjohnod
p6835
VN/A
p6836
sVNauticallyYours
p6837
VN/A
p6838
sVwademanuk
p6839
VN/A
p6840
sVlooksfine
p6841
VN/A
p6842
sVYepSheSaidThat
p6843
VN/A
p6844
sVbonerjamage
p6845
VN/A
p6846
sVinnovindil
p6847
Vfoki
p6848
sVSubhazard
p6849
VN/A
p6850
sVplong0
p6851
VN/A
p6852
sVthe_chandler
p6853
VN/A
p6854
sVladyoftime123
p6855
VN/A
p6856
sVmattmatty21
p6857
VN/A
p6858
sVbotulizard
p6859
VN/A
p6860
sVJason_Seagull
p6861
VN/A
p6862
sVSupercakes101
p6863
VN/A
p6864
sVJaredbt
p6865
VN/A
p6866
sVBobwayne17
p6867
VN/A
p6868
sVNovember_
p6869
VN/A
p6870
sVxLaForge
p6871
VN/A
p6872
sVdevjunk
p6873
VN/A
p6874
sVxTanGuy
p6875
VN/A
p6876
sVcaturdaynauplz
p6877
VN/A
p6878
sVPrince_Keylaylee
p6879
VN/A
p6880
sVdankne
p6881
VN/A
p6882
sVbobdoleequalsgod
p6883
VN/A
p6884
sVAmoebaCowboy
p6885
VN/A
p6886
sVaceetobee
p6887
VN/A
p6888
sVstefanie_k
p6889
VN/A
p6890
sVtwometerventshaft
p6891
VN/A
p6892
sVsinglemommyof1
p6893
VN/A
p6894
sVamberLM
p6895
VN/A
p6896
sVTemari22
p6897
VN/A
p6898
sVokiegirl
p6899
VN/A
p6900
sVimaged
p6901
VN/A
p6902
sVcardiffian
p6903
VN/A
p6904
sVfrackthatbitch
p6905
Vyoasty
p6906
sVEchelon64
p6907
VN/A
p6908
sVcaarl
p6909
VN/A
p6910
sVxCJRx
p6911
VN/A
p6912
sVWildVariety
p6913
VN/A
p6914
sVBukowskaii
p6915
VN/A
p6916
sVsammac
p6917
VN/A
p6918
sVgetoutofherestaIker
p6919
Vladyjanegr
p6920
sVkaratastrophe
p6921
VN/A
p6922
sVjustbeinjustin
p6923
VN/A
p6924
sVskeleton_kiss
p6925
VN/A
p6926
sVgokunt
p6927
VN/A
p6928
sVZappaSmappaz
p6929
VN/A
p6930
sVTerminalxSound
p6931
VN/A
p6932
sVkstryker
p6933
VN/A
p6934
sVangelcompton
p6935
VN/A
p6936
sVINeverGoToWork
p6937
VN/A
p6938
sVRSvennson
p6939
VN/A
p6940
sVexdigga
p6941
VN/A
p6942
sVDjKiDD
p6943
VN/A
p6944
sVthebarrelmonkey
p6945
VN/A
p6946
sVlunchbox4_20
p6947
VN/A
p6948
sVbzilla
p6949
VN/A
p6950
sVlandg
p6951
VN/A
p6952
sVmatthewcj03
p6953
VN/A
p6954
sVchylilith
p6955
Vleftnewdigg
p6956
sVbiglizardinmybyard
p6957
VN/A
p6958
sVzaiden911
p6959
VN/A
p6960
sVamberene
p6961
VN/A
p6962
sVtangerinerind
p6963
VN/A
p6964
sVRand-AlThor
p6965
VN/A
p6966
sVlemonl1m3
p6967
VN/A
p6968
sVmolyns
p6969
VN/A
p6970
sVstephanodude
p6971
VN/A
p6972
sVthehusko
p6973
VN/A
p6974
sVmcchick
p6975
VN/A
p6976
sV1level1
p6977
VN/A
p6978
sVDoomjelly
p6979
VN/A
p6980
sVkat61
p6981
VN/A
p6982
sVsifon187
p6983
VN/A
p6984
sVTogimon
p6985
VN/A
p6986
sVSushi_Fish
p6987
VN/A
p6988
sVjulirocks
p6989
VN/A
p6990
sVlovelylady502
p6991
VN/A
p6992
sVPouncival_Gaming
p6993
VN/A
p6994
sVPaperCrates
p6995
Vmmmcandy
p6996
sVfudging_starving
p6997
VN/A
p6998
sVcaptainsum
p6999
VN/A
p7000
sVcomradefuzz90
p7001
VN/A
p7002
sVraddisease
p7003
VN/A
p7004
sVClintCHall
p7005
VN/A
p7006
sVFizzMaster0
p7007
Vhomeless_wonders
p7008
sVGoingRogue
p7009
VN/A
p7010
sVbellavagabond
p7011
VN/A
p7012
sVgeeeenie
p7013
VN/A
p7014
sVmoontanned
p7015
VN/A
p7016
sVrachc9
p7017
VN/A
p7018
sVTechGuyDallas
p7019
VN/A
p7020
sVcolawars
p7021
VN/A
p7022
sVFlappah723
p7023
VN/A
p7024
sVthatkidmax
p7025
VN/A
p7026
sVfrenchd91
p7027
VN/A
p7028
sVjustin1311
p7029
VN/A
p7030
sVhillbilly909
p7031
VN/A
p7032
sVthrewahway
p7033
VN/A
p7034
sVNatafly
p7035
VN/A
p7036
sVsevendaysky
p7037
VN/A
p7038
sVSuspiciousTurtle
p7039
VN/A
p7040
sVthisisme1988
p7041
VN/A
p7042
sVbelizardbeth
p7043
VN/A
p7044
sVtdubx
p7045
VN/A
p7046
sVHydratingFIRE
p7047
VN/A
p7048
sVLoneKharnivore
p7049
Vroxieh
p7050
sVPuddl3Pirate
p7051
VN/A
p7052
sVSoManyMinutes
p7053
Vtesformes
p7054
sVragnarok927
p7055
VN/A
p7056
sVdingo152
p7057
VN/A
p7058
sVherduckyness
p7059
VN/A
p7060
sVMutantTeddyBear
p7061
VN/A
p7062
sVpotentialpizzapowers
p7063
VN/A
p7064
sVcrispyWOFL
p7065
VN/A
p7066
sVfebmo
p7067
VN/A
p7068
sVhihi44
p7069
VN/A
p7070
sVAidanmcn
p7071
VN/A
p7072
sVStu2519
p7073
VN/A
p7074
sVdcarrrey
p7075
Vjay_niel
p7076
sVjack60
p7077
VN/A
p7078
sVblessedlife
p7079
VN/A
p7080
sVI_raped-I_rape_cats
p7081
Vchupanibre25
p7082
sVeffigies
p7083
VN/A
p7084
sVAsiapandemic
p7085
VN/A
p7086
sVFixergirl
p7087
VN/A
p7088
sVgeekonamotorcycle
p7089
VN/A
p7090
sVKeefa101
p7091
VN/A
p7092
sVdave_the_african
p7093
VN/A
p7094
sVKellyL3
p7095
VN/A
p7096
sVroccala
p7097
VN/A
p7098
sVharrelli
p7099
VN/A
p7100
sVVordLader
p7101
VN/A
p7102
sVjlmango
p7103
VN/A
p7104
sVSpliff_Me_Up
p7105
VN/A
p7106
sVdigitaldraco
p7107
VN/A
p7108
sVNessasayswhat
p7109
VN/A
p7110
sVSemajSemajSemaj
p7111
VN/A
p7112
sVManning01
p7113
VN/A
p7114
sVnormallythere
p7115
VN/A
p7116
sVmacredsun
p7117
VN/A
p7118
sVHybridMuffin
p7119
VN/A
p7120
sVCaptMayer
p7121
VN/A
p7122
sVraspberryblonde
p7123
VN/A
p7124
sVglycerinSOAPbox
p7125
Vjeffreyed
p7126
sVross5781
p7127
Vhand_out
p7128
sVElGruntox
p7129
VN/A
p7130
sVDudronia
p7131
VN/A
p7132
sVsno0py_girl
p7133
VN/A
p7134
sVgoingnorthwest
p7135
VN/A
p7136
sVWithABaseballBat
p7137
VN/A
p7138
sVseanterry7
p7139
VN/A
p7140
sVCardboardpoops
p7141
VN/A
p7142
sVFRAGM3NT
p7143
VN/A
p7144
sVraymendx
p7145
VN/A
p7146
sVbarcher80
p7147
VN/A
p7148
sVOldScenee
p7149
VN/A
p7150
sVminirocker56
p7151
VN/A
p7152
sVObvious-Implyer
p7153
VN/A
p7154
sVKimmieC1996
p7155
VN/A
p7156
sVJeannaW
p7157
VN/A
p7158
sVAPICTUREOFAWHALE
p7159
Vrazzlethemall
p7160
sVLegendaryMobius
p7161
VN/A
p7162
sVPenultimate_Timelord
p7163
VN/A
p7164
sVCmartinez43
p7165
VN/A
p7166
sVwerrdio
p7167
VN/A
p7168
sV4on_the_floor
p7169
VN/A
p7170
sVAgentCodySpanks
p7171
VN/A
p7172
sVbigfishh
p7173
VN/A
p7174
sVfuckbitchesgeteuros
p7175
VN/A
p7176
sVOllieh96
p7177
VN/A
p7178
sVDr_omaha
p7179
VN/A
p7180
sVManny_Mudbutt
p7181
VN/A
p7182
sVHereForTheHunt
p7183
VN/A
p7184
sVghostlytrees
p7185
VN/A
p7186
sVkwaththeraven
p7187
VN/A
p7188
sVkdpizza
p7189
VN/A
p7190
sVpazewzew
p7191
VN/A
p7192
sVthepinkyoohoo
p7193
VN/A
p7194
sVArcath_
p7195
VN/A
p7196
sVJimNortonLuvsTheCock
p7197
VN/A
p7198
sVSuicidal_Inspirant
p7199
VN/A
p7200
sVsesameeyes
p7201
VN/A
p7202
sVlioness7
p7203
VN/A
p7204
sVPresident_Flowbama
p7205
VN/A
p7206
sVcb98678
p7207
VN/A
p7208
sVConansBeard
p7209
VN/A
p7210
sVMinnesotaPride
p7211
VN/A
p7212
sVBread_and_Bones
p7213
VN/A
p7214
sVtieks0
p7215
VN/A
p7216
sVmichael1223
p7217
VN/A
p7218
sVJaiSol
p7219
VN/A
p7220
sVpghguitar
p7221
VN/A
p7222
sVthrowawayscared
p7223
VN/A
p7224
sVkristamollett
p7225
VN/A
p7226
sVTheDecline28
p7227
VN/A
p7228
sVscissormonkey
p7229
VN/A
p7230
sVMofabolist
p7231
VN/A
p7232
sVKameronID
p7233
VN/A
p7234
sVthefeesh
p7235
VN/A
p7236
sVCalvinW
p7237
VN/A
p7238
sVDigikid13
p7239
VN/A
p7240
sVdisposablewife
p7241
VN/A
p7242
sVbedouinebabe
p7243
VN/A
p7244
sVfelixthemaster1
p7245
VN/A
p7246
sVicankilluwithmybrain
p7247
VN/A
p7248
sVRandomWeirdShit
p7249
VN/A
p7250
sVReckless5040
p7251
VN/A
p7252
sVbrresnic
p7253
VN/A
p7254
sVJohnWilkesTruth
p7255
VN/A
p7256
sVdontjudgemybutt
p7257
VN/A
p7258
sVStLRedditGirl
p7259
VN/A
p7260
sVysberk
p7261
VN/A
p7262
sVghandiburger
p7263
VN/A
p7264
sVtake7steps
p7265
VN/A
p7266
sVRL007
p7267
VN/A
p7268
sVKosobuckaroo
p7269
VN/A
p7270
sVProck88
p7271
VN/A
p7272
sVAraiebowhi
p7273
VN/A
p7274
sVred_cobalt
p7275
VN/A
p7276
sVldun91
p7277
VN/A
p7278
sVMrB0mbastic
p7279
VN/A
p7280
sVAustonian87
p7281
Vangiowhiz1
p7282
sVsharpenup
p7283
VN/A
p7284
sVRyane927
p7285
VN/A
p7286
sVmydogfinnigan
p7287
VN/A
p7288
sVthebraus
p7289
VN/A
p7290
sVEwalk
p7291
VN/A
p7292
sVhousewife29169
p7293
VN/A
p7294
sVallusions
p7295
VN/A
p7296
sVsenchi
p7297
VN/A
p7298
sVAmhuffaker
p7299
VN/A
p7300
sVryangraves
p7301
VN/A
p7302
sVEvilCyborg10
p7303
VN/A
p7304
sVorangejews1
p7305
VN/A
p7306
sVzombieinferno
p7307
Vninjaliwa
p7308
sVbuoywonder77
p7309
VN/A
p7310
sVzzisrafelzz
p7311
VN/A
p7312
sVHobbsauce
p7313
VN/A
p7314
sVjongasm
p7315
VN/A
p7316
sVCalv1nrox
p7317
VN/A
p7318
sVTai2172
p7319
VN/A
p7320
sVvodoman123
p7321
VN/A
p7322
sVWayward54
p7323
Vafriendlysortofchap
p7324
sVBeastybarnes21
p7325
VN/A
p7326
sVTheTripCommander
p7327
VN/A
p7328
sVgnidaol123
p7329
VN/A
p7330
sVpretty_honest_guy
p7331
Vpastafariantwit
p7332
sVDMLydian
p7333
VN/A
p7334
sVRenegade_Journo
p7335
Vraspberryseltzer
p7336
sVFinch58
p7337
VN/A
p7338
sVSugarRushSlt
p7339
Vsynth3tk
p7340
sVrottenramen
p7341
VN/A
p7342
sVMrPoohHead
p7343
VN/A
p7344
sVtotallybroke
p7345
VN/A
p7346
sVceerob007
p7347
VN/A
p7348
sVKjack12
p7349
VN/A
p7350
sVChristouxphr
p7351
VN/A
p7352
sVgordo82
p7353
VN/A
p7354
sVsdritchie
p7355
VN/A
p7356
sVgreggsandler
p7357
VN/A
p7358
sVTheCakeMilker
p7359
VN/A
p7360
sVbooktheif
p7361
VN/A
p7362
sVknockerwocky
p7363
VN/A
p7364
sVDangerQ
p7365
VN/A
p7366
sVMoldybooks
p7367
VN/A
p7368
sVemmuhleee
p7369
VN/A
p7370
sVgeneralnotsew
p7371
VN/A
p7372
sVWagnam
p7373
VN/A
p7374
sVjhuck30
p7375
VN/A
p7376
sVniqabi
p7377
VN/A
p7378
sVBangosSkank
p7379
VN/A
p7380
sVthrowaway_father
p7381
VN/A
p7382
sVJustGodlyEnough
p7383
VN/A
p7384
sVIBeyondBirthday
p7385
VN/A
p7386
sValnajjd
p7387
VN/A
p7388
sVHungryCollegeKid1
p7389
VN/A
p7390
sVVyous
p7391
VN/A
p7392
sVPaladinlost
p7393
VN/A
p7394
sVxEONx
p7395
VN/A
p7396
sVsunchow
p7397
VN/A
p7398
sVDaveyDaVinci
p7399
VN/A
p7400
sVmckinsa
p7401
VN/A
p7402
sVTenth_Doctor
p7403
VN/A
p7404
sVNinja1017
p7405
VN/A
p7406
sVFish_Cheese
p7407
VN/A
p7408
sVthefireballkid
p7409
VN/A
p7410
sVdanieldavidpeterson
p7411
VN/A
p7412
sVthatcouldhavebeenme
p7413
VN/A
p7414
sVFranceWinsWar
p7415
VN/A
p7416
sVSorinSaakat
p7417
Vtashiwa
p7418
sVjdxogdlfkjvndgl
p7419
VN/A
p7420
sVInNeedOfPizzaBad
p7421
VN/A
p7422
sVbocelot
p7423
VN/A
p7424
sVJT803streetkarma
p7425
VN/A
p7426
sVBatchIntoGear
p7427
VN/A
p7428
sVrico2992
p7429
VN/A
p7430
sVyogsothog
p7431
VN/A
p7432
sVHEYIMMAWOLF
p7433
VN/A
p7434
sVSyrupDerp
p7435
VN/A
p7436
sVtsinclair
p7437
VN/A
p7438
sVChicagoRex
p7439
VN/A
p7440
sVchelac
p7441
VN/A
p7442
sVSancho6000
p7443
VN/A
p7444
sVphab3k
p7445
Vjenadactyl
p7446
sVJack_Mason
p7447
VN/A
p7448
sVPeacePig
p7449
VN/A
p7450
sVraveneyes77
p7451
VN/A
p7452
sVZilveari
p7453
VN/A
p7454
sVrandomguy634
p7455
VN/A
p7456
sVbretsony
p7457
VN/A
p7458
sVSnorlax12
p7459
VN/A
p7460
sVLurkerConnie
p7461
VN/A
p7462
sVNotWant
p7463
Vnotbumble
p7464
sVzqxwcevrbt
p7465
VN/A
p7466
sVimdol
p7467
VN/A
p7468
sVplaidsuitpants
p7469
VN/A
p7470
sVIdontsellcrack
p7471
VN/A
p7472
sVichwillkuhe
p7473
VN/A
p7474
sVvillageidiot1991
p7475
VN/A
p7476
sVfueledbysatan
p7477
VN/A
p7478
sVHMPoweredMan
p7479
VN/A
p7480
sVallaside
p7481
Vpizzaman2012
p7482
sVyohansen47
p7483
VN/A
p7484
sVATwoms
p7485
Velbonio
p7486
sVMisterWigggles666
p7487
VN/A
p7488
sVluluwinchestah
p7489
VN/A
p7490
sVtastychicken
p7491
VN/A
p7492
sVfollowingflanders
p7493
VN/A
p7494
sVneeddis
p7495
VN/A
p7496
sVpreternaturous
p7497
VN/A
p7498
sVineedateam1
p7499
VN/A
p7500
sVcelticsbig4
p7501
VN/A
p7502
sVSebastian23
p7503
VN/A
p7504
sVkekelly
p7505
VN/A
p7506
sVfablewings
p7507
VN/A
p7508
sVTheDudeAbides37
p7509
VN/A
p7510
sVHadesSmiles
p7511
VN/A
p7512
sVbaderftw
p7513
VN/A
p7514
sVkiwi061216
p7515
VN/A
p7516
sVsault1988
p7517
VN/A
p7518
sVTotally-Fucked
p7519
VN/A
p7520
sVneonrose
p7521
Vm2nu
p7522
sVlikestartups
p7523
VN/A
p7524
sVjojoko
p7525
VN/A
p7526
sVstrawberrytard
p7527
VN/A
p7528
sVsquirrelyMAPLE
p7529
VN/A
p7530
sVname_with_a_y
p7531
VN/A
p7532
sVrosaliezom
p7533
VN/A
p7534
sVwafflefalafel
p7535
VN/A
p7536
sVcrazedy
p7537
VN/A
p7538
sVwatsoned
p7539
VN/A
p7540
sVJoblessCollegeKid
p7541
VN/A
p7542
sVImadeanaccount4this
p7543
VN/A
p7544
sVghostrider90
p7545
VN/A
p7546
sVthesmithspresumably
p7547
VN/A
p7548
sVretshalgo
p7549
VN/A
p7550
sVOkToBeTakei
p7551
VN/A
p7552
sVMofiaGangster
p7553
VN/A
p7554
sVnewstart101
p7555
VN/A
p7556
sVLordJesusChrist777
p7557
VN/A
p7558
sVHelloFruitBat
p7559
VN/A
p7560
sVGuinnessWithinUs
p7561
VN/A
p7562
sVbrotherbock
p7563
VN/A
p7564
sVDiscordanceAxis
p7565
VN/A
p7566
sVmhallgren5
p7567
VN/A
p7568
sVIttieBittie
p7569
VN/A
p7570
sVerusumu
p7571
VN/A
p7572
sVvisivopro
p7573
VN/A
p7574
sVLightSideIsRightSide
p7575
VN/A
p7576
sVKoolaidchick
p7577
VN/A
p7578
sVvaldes10163
p7579
VN/A
p7580
sVmurraydaskull
p7581
VN/A
p7582
sVfreakish-neko
p7583
Vbigbadjew
p7584
sVThe_black_Community
p7585
Vfugknuckles
p7586
sVlinkinwisdom
p7587
VN/A
p7588
sVXandersmommy
p7589
VN/A
p7590
sVBumpiestBread
p7591
VN/A
p7592
sVgoddamnitdad
p7593
VN/A
p7594
sVTornadoCondorV2
p7595
VN/A
p7596
sVmrgreeny
p7597
VN/A
p7598
sVcrusaderqueen
p7599
VN/A
p7600
sVtheredditor1142
p7601
VN/A
p7602
sVtrees_and_waffles
p7603
VN/A
p7604
sVHekz
p7605
VN/A
p7606
sVBotanicare
p7607
VN/A
p7608
sVCalientepocket1
p7609
VN/A
p7610
sViprizefighter
p7611
Vmvs5191
p7612
sVice_ent
p7613
VN/A
p7614
sVMystic11
p7615
VN/A
p7616
sVcasella2
p7617
VN/A
p7618
sVdeerareinsensitive
p7619
VN/A
p7620
sVMechEngineeringGod
p7621
VN/A
p7622
sVflynnski
p7623
VN/A
p7624
sVtehjeff
p7625
VN/A
p7626
sV3kris08
p7627
VN/A
p7628
sVThe_Babe
p7629
VN/A
p7630
sVsoggyperson
p7631
VN/A
p7632
sVandrewmcflyy
p7633
VN/A
p7634
sVsexybrowneyes
p7635
VN/A
p7636
sVRogpog777
p7637
VN/A
p7638
sVocpmbrat
p7639
Vmayquiri
p7640
sViwant2drum
p7641
VN/A
p7642
sVjustforrazors
p7643
VN/A
p7644
sVThatOtherOneGuy
p7645
VN/A
p7646
sVHakeemOlajuwon
p7647
VN/A
p7648
sVrshepa1555
p7649
Vkiltedman
p7650
sVAsmaJones
p7651
Vjme413
p7652
sVlivingdub
p7653
VN/A
p7654
sVridiculous_questions
p7655
VN/A
p7656
sVmilleribsen
p7657
VN/A
p7658
sVblackstar00
p7659
VN/A
p7660
sVkeepitupstairs
p7661
VN/A
p7662
sVtbone711
p7663
VN/A
p7664
sVGuysWhatTheFuck
p7665
VN/A
p7666
sVsnicketorticket
p7667
VN/A
p7668
sVSweatyMarshKitten
p7669
VN/A
p7670
sVjuanwonton
p7671
VN/A
p7672
sVMonkeysnott
p7673
VN/A
p7674
sVnis42
p7675
VN/A
p7676
sVdeadheartsbeat
p7677
VN/A
p7678
sVEgocentric
p7679
VN/A
p7680
sVnancy_raygun
p7681
VN/A
p7682
sVFrancesca84
p7683
VN/A
p7684
sVEmostarcraft
p7685
VThreedice
p7686
sVGeneralRose
p7687
VN/A
p7688
sV___interlude
p7689
VN/A
p7690
sVdr_wang
p7691
VN/A
p7692
sVYazcara
p7693
VN/A
p7694
sVLethargicMonkey
p7695
VN/A
p7696
sVcinnamondolce
p7697
VN/A
p7698
sVbowlnoodlez
p7699
VN/A
p7700
sVAwake00
p7701
VN/A
p7702
sVscarlettenoir
p7703
VN/A
p7704
sVAistoBasBistoC
p7705
VN/A
p7706
sVtherealcraxy
p7707
VN/A
p7708
sVFortune417
p7709
VN/A
p7710
sVrandomnightfreedie
p7711
VN/A
p7712
sVDummkopfs
p7713
VN/A
p7714
sVShuffleandTruffle
p7715
VN/A
p7716
sVcolonialspew
p7717
VN/A
p7718
sVjunefirst123
p7719
VN/A
p7720
sVSatire55
p7721
VN/A
p7722
sVStarrHrdgr
p7723
VN/A
p7724
sVTheBeardedOwl
p7725
VN/A
p7726
sVAsk_Me_About_My_Pie
p7727
VN/A
p7728
sVdangersgirl
p7729
VN/A
p7730
sViwfh
p7731
VN/A
p7732
sVazeroth_dawn
p7733
VN/A
p7734
sVthe2ndtolastunicorn
p7735
VN/A
p7736
sVBellicose_Engineer
p7737
VN/A
p7738
sVtoaster_waffle
p7739
VN/A
p7740
sVleftyguitarguy
p7741
VN/A
p7742
sVToyfare
p7743
VN/A
p7744
sVohgodthebees
p7745
VN/A
p7746
sVkoriki
p7747
VN/A
p7748
sVnomorestumbling
p7749
VN/A
p7750
sVlondoncolson
p7751
VN/A
p7752
sVSDAdam
p7753
VN/A
p7754
sVDTorakhan
p7755
VN/A
p7756
sVTaurusRising
p7757
VN/A
p7758
sVmoondisyko
p7759
VN/A
p7760
sVrbasov
p7761
VN/A
p7762
sVlemonmellow
p7763
VN/A
p7764
sVyarco
p7765
VN/A
p7766
sVDagdagger
p7767
VN/A
p7768
sVfunkengruven88
p7769
VN/A
p7770
sVjackelope
p7771
VN/A
p7772
sVVanheim
p7773
VN/A
p7774
sVVeryfluffydragon
p7775
VN/A
p7776
sVLexAurum
p7777
VN/A
p7778
sVDwabbleDwabble
p7779
Vninjaliwa
p7780
sVSarahGadz
p7781
VN/A
p7782
sVdummyhead
p7783
Vfrankto
p7784
sVHoly_Beard
p7785
VN/A
p7786
sVBlazinEnt
p7787
VN/A
p7788
sVBestRbx
p7789
VN/A
p7790
sVwiz3n
p7791
VN/A
p7792
sVPsychoNinjaFlea
p7793
VN/A
p7794
sVmthoms3746
p7795
VN/A
p7796
sVjshima2
p7797
VN/A
p7798
sVRyo_Hazuki
p7799
VN/A
p7800
sVInfamousDoctor
p7801
VN/A
p7802
sVWangJinrei
p7803
VN/A
p7804
sVmr_muzzy
p7805
VN/A
p7806
sVTorontoInSummer
p7807
VN/A
p7808
sVrareapplepie
p7809
VN/A
p7810
sVrckmomof2
p7811
VN/A
p7812
sVpandarawr
p7813
VIdTugYourBoat
p7814
sVIWantToBeNormal
p7815
VN/A
p7816
sVTheGreatestRedditor
p7817
VN/A
p7818
sVstordoff
p7819
VN/A
p7820
sVwhoopdippitydooda
p7821
VN/A
p7822
sVuponthewatershed
p7823
VN/A
p7824
sVstephmkt
p7825
VN/A
p7826
sVgarywb069
p7827
VN/A
p7828
sVthedestro
p7829
VN/A
p7830
sVbigmamad
p7831
VN/A
p7832
sVTalwyn
p7833
VN/A
p7834
sVthemanifold
p7835
VN/A
p7836
sVJGRIFF123
p7837
VN/A
p7838
sVexternals
p7839
VN/A
p7840
sVCaliConnection
p7841
VN/A
p7842
sVJoe_purdy
p7843
VN/A
p7844
sVmommyof2babyboys
p7845
VN/A
p7846
sVPantherX
p7847
VN/A
p7848
sVleeshapwnz
p7849
VN/A
p7850
sVNicolu
p7851
VN/A
p7852
sVMethodikull
p7853
VN/A
p7854
sVmsmaddening
p7855
VN/A
p7856
sVwendetta
p7857
VN/A
p7858
sVswiftlessons
p7859
VN/A
p7860
sVmightiestMouse
p7861
VN/A
p7862
sVLittleWhiteTab
p7863
VN/A
p7864
sVlukamako
p7865
VN/A
p7866
sVchinchilla618
p7867
VN/A
p7868
sVDendo1
p7869
VN/A
p7870
sVrowannagreen1
p7871
VN/A
p7872
sVDagsMcHung
p7873
VN/A
p7874
sVcookrw1989
p7875
VN/A
p7876
sVbelovebepeace
p7877
VN/A
p7878
sVsdwrage
p7879
VN/A
p7880
sVSchizoreindeer
p7881
VN/A
p7882
sVMegainPhoto
p7883
Vflamingcow
p7884
sVhomeschoolingmom
p7885
VN/A
p7886
sVLaheyDrinks
p7887
Vpandyfackerlling
p7888
sVredrum1140
p7889
VN/A
p7890
sVmamacat68
p7891
VN/A
p7892
sVAndthatguy
p7893
VN/A
p7894
sVTaiokaion
p7895
VN/A
p7896
sVRafiTBA
p7897
VN/A
p7898
sVdeus_ex_eagles
p7899
VN/A
p7900
sVmaximusstyles
p7901
VN/A
p7902
sVmommyof42011
p7903
VN/A
p7904
sVjoederpsmith
p7905
VN/A
p7906
sVexpandyourroots
p7907
Vwhosthatguru_v2
p7908
sVLMKurosu
p7909
VN/A
p7910
sVhaydenandlexysmommy
p7911
VN/A
p7912
sVmrpoolman
p7913
VN/A
p7914
sVconfused_redditor
p7915
VN/A
p7916
sVrabitrabbit
p7917
VN/A
p7918
sVcdieguez
p7919
VN/A
p7920
sVmomof2inms
p7921
VN/A
p7922
sVDarksaber85
p7923
VN/A
p7924
sVAndrea_D
p7925
VN/A
p7926
sVAdamman62
p7927
VN/A
p7928
sVbravefencertrollashi
p7929
VN/A
p7930
sVdinothesaur
p7931
VN/A
p7932
sVemilyishungry
p7933
VN/A
p7934
sVLinuxPoser
p7935
VN/A
p7936
sVKamiKazilik
p7937
VN/A
p7938
sVfirelovinggerbil
p7939
VN/A
p7940
sVCBClemens
p7941
VN/A
p7942
sVhavox07
p7943
VN/A
p7944
sVnerdalicious85
p7945
Vmstina
p7946
sVmollymoosesays
p7947
Volivertw1st
p7948
sVmumblethesilent
p7949
VN/A
p7950
sVdollfacexo
p7951
VN/A
p7952
sVNOT_A_BUMBLE_BEE
p7953
VN/A
p7954
sVisingthr4iam
p7955
VN/A
p7956
sVBlandfrw
p7957
VN/A
p7958
sVklairedee
p7959
Vjuggalofx
p7960
sVhungryuniversitykid
p7961
VN/A
p7962
sVRAOPthrowawayy
p7963
VN/A
p7964
sVILoveCookies55
p7965
VN/A
p7966
sVJeihou
p7967
VN/A
p7968
sVTheLightingGuy
p7969
VN/A
p7970
sVIgotantinmypant
p7971
VN/A
p7972
sVISKEELE
p7973
VN/A
p7974
sVN-ConfusedPorphyrin
p7975
VN/A
p7976
sVebulajonez
p7977
VN/A
p7978
sVhappehkitteh
p7979
VN/A
p7980
sVwilbur2010
p7981
VN/A
p7982
sVFrequentHandWasher84
p7983
VN/A
p7984
sVjenntotheferr
p7985
VN/A
p7986
sVtekn04
p7987
VN/A
p7988
sVebetha
p7989
VN/A
p7990
sVRokky94
p7991
VN/A
p7992
sVx777x777x
p7993
VN/A
p7994
sVkeithmann
p7995
VN/A
p7996
sVninatwin
p7997
VN/A
p7998
sVNortherninfinity
p7999
VN/A
p8000
sVPAPA_EN_MI_CULO
p8001
VN/A
p8002
sVmosephk
p8003
VN/A
p8004
sVsawake
p8005
VN/A
p8006
sVB-A-Cchante
p8007
VN/A
p8008
sVohsocleverhuh
p8009
VN/A
p8010
sVBag_of_Ducks
p8011
VN/A
p8012
sVLambDuhh
p8013
VN/A
p8014
sVglowstix420
p8015
VN/A
p8016
sVBlue_Falcon_
p8017
VN/A
p8018
sVkatz22492
p8019
VN/A
p8020
sVChoCake
p8021
VN/A
p8022
sVbornbytheriver
p8023
VN/A
p8024
sVgmalcolmlewis
p8025
VN/A
p8026
sVjamisonfitz
p8027
VN/A
p8028
sVCyanideBunneh
p8029
VN/A
p8030
sVdxtrr
p8031
VN/A
p8032
sVTDenning
p8033
VN/A
p8034
sVboogieonregwoman
p8035
VN/A
p8036
sVs32
p8037
VN/A
p8038
sVjensdad2005
p8039
VN/A
p8040
sVangelbaby21
p8041
VN/A
p8042
sVTony_tigre
p8043
VN/A
p8044
sVDizzy_Desu
p8045
VN/A
p8046
sVgrits207
p8047
VN/A
p8048
sVEllebean
p8049
VN/A
p8050
sVgufcfan
p8051
VN/A
p8052
sVVellon221
p8053
VN/A
p8054
sVthedukeofdukes
p8055
VN/A
p8056
sVschuppaloop
p8057
VN/A
p8058
sVfinancial_idiot
p8059
VN/A
p8060
sVtwosoon22
p8061
VN/A
p8062
sVlinfanapo
p8063
VN/A
p8064
sViLikeCatsAlot1
p8065
VN/A
p8066
sVXeiliex
p8067
VN/A
p8068
sVHectorthegreatone
p8069
VN/A
p8070
sVsocomnvy
p8071
VN/A
p8072
sVbonny-bee
p8073
VN/A
p8074
sVWilfordGrimley
p8075
VN/A
p8076
sVchimneyswifty
p8077
VN/A
p8078
sVcodacorolla
p8079
VN/A
p8080
sVrvm4488
p8081
VN/A
p8082
sVdsteeleAggie
p8083
VN/A
p8084
sVJankman01
p8085
VN/A
p8086
sVraddakatkat
p8087
VN/A
p8088
sVsean1986
p8089
VN/A
p8090
sVryandury
p8091
VN/A
p8092
sVpwitty2
p8093
VN/A
p8094
sVSmokehTheBear
p8095
Vcmdbash
p8096
sVSandman212
p8097
VN/A
p8098
sVOsperyz
p8099
VN/A
p8100
sVfeetluvr
p8101
VN/A
p8102
sVsir_walter
p8103
VN/A
p8104
sVBigBoss722
p8105
Vmoshimoochi
p8106
sVImMakingWaffles
p8107
VN/A
p8108
sVAcylum
p8109
VN/A
p8110
sVsiochain09
p8111
VN/A
p8112
sVksj
p8113
VN/A
p8114
sVTMHS
p8115
VN/A
p8116
sVDillTheOne
p8117
VN/A
p8118
sVjmw765
p8119
VN/A
p8120
sVAsher123498
p8121
VN/A
p8122
sVAlwaysAntiHivemind
p8123
VN/A
p8124
sVloofkid
p8125
VN/A
p8126
sVcrwlz
p8127
VN/A
p8128
sVEVILemons
p8129
VN/A
p8130
sVdiardiar
p8131
VN/A
p8132
sVmeowmeowkiki
p8133
VN/A
p8134
sVImnobloodylord
p8135
VN/A
p8136
sVpordspoke
p8137
VN/A
p8138
sVspookycookies
p8139
VN/A
p8140
sVGoogleOpenLetter
p8141
VN/A
p8142
sVJava980
p8143
VN/A
p8144
sVIzTheFizz
p8145
VN/A
p8146
sVahnalrahpist
p8147
VN/A
p8148
sVDesperateInAustin87
p8149
Vtarable
p8150
sVdil3000
p8151
VN/A
p8152
sVhBoBh
p8153
VN/A
p8154
sVViceroyRW
p8155
VN/A
p8156
sVKrushion
p8157
VN/A
p8158
sVthestinkywhistler
p8159
VN/A
p8160
sVvCarbonix
p8161
VN/A
p8162
sVachrist14
p8163
VN/A
p8164
sVDenimTree
p8165
VN/A
p8166
sVgearhead82592
p8167
VN/A
p8168
sVtopodan
p8169
VN/A
p8170
sVcckynv
p8171
VN/A
p8172
sVThatGuyWhoAte
p8173
VN/A
p8174
sVCyberpunk360
p8175
VN/A
p8176
sVNigelxD
p8177
VN/A
p8178
sVJoshVester
p8179
VN/A
p8180
sVgatorfan12
p8181
VN/A
p8182
sVDrFeargood
p8183
VN/A
p8184
sVcyanide_zombie
p8185
VN/A
p8186
sVsundaytripz
p8187
VN/A
p8188
sVdebolt
p8189
VN/A
p8190
sVNoiseJunkie
p8191
VN/A
p8192
sVShadowElliot
p8193
Vmaverick44
p8194
sVthrowaway0751
p8195
VN/A
p8196
sVPterrific
p8197
Vharrisonfire
p8198
sVkillapeeez
p8199
VN/A
p8200
sVDecibelDiscord
p8201
VN/A
p8202
sV_Synth_
p8203
VN/A
p8204
sVJazzyMcNazz
p8205
VN/A
p8206
sVSigmaValentine
p8207
Vpizzamom
p8208
sVcrosec
p8209
VN/A
p8210
sVStelfury
p8211
VN/A
p8212
sVsuarezi93
p8213
VN/A
p8214
sVpaleobicycle
p8215
VN/A
p8216
sVTrmy9b
p8217
VN/A
p8218
sVmikedante2011
p8219
VN/A
p8220
sVmoonsockets
p8221
VN/A
p8222
sVJeffRoyale
p8223
Vk-dawgg
p8224
sVcrottece
p8225
VN/A
p8226
sVthrowawaybfaccount
p8227
VN/A
p8228
sVjustinfrederick
p8229
Vstraha21
p8230
sVideotera
p8231
VN/A
p8232
sVladybugstar28
p8233
VN/A
p8234
sVjanell89gagnon
p8235
VN/A
p8236
sVfizzyliftingdrinker
p8237
VN/A
p8238
sVscaireejack
p8239
VN/A
p8240
sVtaxidermi
p8241
VN/A
p8242
sVTTAMREKRAP
p8243
VN/A
p8244
sVmzprice23
p8245
VN/A
p8246
sVmcsquar3d
p8247
VN/A
p8248
sVskins21
p8249
VN/A
p8250
sVdalthughes
p8251
VN/A
p8252
sVblistered_avalon
p8253
VN/A
p8254
sVtheassdestroyer
p8255
VN/A
p8256
sVluv276
p8257
VN/A
p8258
sVBlly509
p8259
VN/A
p8260
sVrockthisbeach
p8261
VN/A
p8262
sVchynncarmen
p8263
VN/A
p8264
sVcoolcat123280
p8265
VN/A
p8266
sVmichaelarm987
p8267
VN/A
p8268
sVajmar21
p8269
VN/A
p8270
sVCDThornborrow
p8271
VN/A
p8272
sVSoleSoldier
p8273
VN/A
p8274
sVHunbiki
p8275
VN/A
p8276
sVplaydoepete
p8277
VN/A
p8278
sVCanchi
p8279
VN/A
p8280
sVGuitarFiend
p8281
VN/A
p8282
sVTaxeSnomore20
p8283
VN/A
p8284
sVMrPowerful
p8285
VN/A
p8286
sVlmao_ze_dong
p8287
VN/A
p8288
sVKozii
p8289
Voverripebanana
p8290
sVlilMrsSunshine
p8291
VN/A
p8292
sVthebasementtapes
p8293
VN/A
p8294
sVtheseaguy
p8295
VN/A
p8296
sVMatt_Muier_Eyes
p8297
VN/A
p8298
sVthevillagekid
p8299
VN/A
p8300
sVtheniceiceman
p8301
VN/A
p8302
sVkarabearindy
p8303
VN/A
p8304
sVhow_do_i_name
p8305
VN/A
p8306
sVdrmojo418
p8307
VN/A
p8308
sVandihow
p8309
VN/A
p8310
sVriverfrontmom
p8311
VN/A
p8312
sVquesaadia
p8313
VN/A
p8314
sVBTT2
p8315
VN/A
p8316
sVAbsinthe42
p8317
Vjetboyterp
p8318
sVenneathought
p8319
Vjerematic
p8320
sVunluckyfortheholiday
p8321
VN/A
p8322
sVdont_thane_on_me
p8323
VN/A
p8324
sVyellowsubtab
p8325
VN/A
p8326
sVmaqkathy
p8327
VN/A
p8328
sVFritoOreo
p8329
VN/A
p8330
sVomyhotlibertineson
p8331
VN/A
p8332
sVliferemixed
p8333
VN/A
p8334
sVpropertyoftim
p8335
VN/A
p8336
sVctrl_c
p8337
VN/A
p8338
sVamalgamka
p8339
VN/A
p8340
sVsootoor
p8341
VN/A
p8342
sVmdax8414
p8343
Vdestudent
p8344
sVctrl_z
p8345
VN/A
p8346
sVfohacidal
p8347
VN/A
p8348
sVSuperblySuperb
p8349
VN/A
p8350
sVNemesis0320
p8351
VN/A
p8352
sVIrieHooper
p8353
VN/A
p8354
sVMisaDarling
p8355
VN/A
p8356
sVDillingerDrummer
p8357
VN/A
p8358
sVbleeding_dying_love
p8359
Vkmlweather
p8360
sVcyb1n
p8361
VN/A
p8362
sVTARDISBlue2013
p8363
VN/A
p8364
sVHomiesunite
p8365
VN/A
p8366
sVikaika
p8367
VN/A
p8368
sVnissie1
p8369
Villgiveyouthekey
p8370
sVStephyGang
p8371
VN/A
p8372
sVSpecialKRJ
p8373
VN/A
p8374
sVtonyac84
p8375
VN/A
p8376
sVPomplamousse
p8377
VN/A
p8378
sVPauseBreak1
p8379
VN/A
p8380
sVnichogm
p8381
VN/A
p8382
sVModstFox
p8383
VN/A
p8384
sVTheInternetIsNaughty
p8385
VN/A
p8386
sVmxdness
p8387
VN/A
p8388
sVtapatilo
p8389
VN/A
p8390
sVmilkysky
p8391
VN/A
p8392
sVtake_and_toss
p8393
VN/A
p8394
sVMeeNinjaTurtle
p8395
VN/A
p8396
sVCtSamurai
p8397
VN/A
p8398
sVawesomeAccent
p8399
VN/A
p8400
sVNymphetamineRx
p8401
VN/A
p8402
sVPurple9994387483
p8403
VN/A
p8404
sVsheenobu
p8405
VN/A
p8406
sVScrotusMinimus_2
p8407
VN/A
p8408
sVMythbuster52
p8409
VN/A
p8410
sVTheNic90
p8411
VN/A
p8412
sVbroke_hungry_student
p8413
VN/A
p8414
sVKBall629
p8415
VN/A
p8416
sVMyDogTotoro
p8417
VN/A
p8418
sVHayleyWearsPrada
p8419
VN/A
p8420
sVtheshizle
p8421
Vthetruedarkone
p8422
sVDepinna
p8423
VN/A
p8424
sVAvizandum
p8425
VN/A
p8426
sVDontLetUp
p8427
VN/A
p8428
sVKatat0nikRadi0
p8429
VN/A
p8430
sVajlover1986
p8431
VN/A
p8432
sVhelldeamon3
p8433
VN/A
p8434
sVGalus
p8435
VN/A
p8436
sVihatememes0
p8437
VN/A
p8438
sVbones_jones132
p8439
VN/A
p8440
sVRjsProperty
p8441
VN/A
p8442
sVThrowawayBegger
p8443
VN/A
p8444
sVJustBlewMyLoad
p8445
Vb4tty0n3
p8446
sVmike7260s
p8447
VN/A
p8448
sVHipsterMonk
p8449
VN/A
p8450
sVNarwhalNumber5
p8451
VN/A
p8452
sVJBVega
p8453
VN/A
p8454
sVThe_War_On_Drugs
p8455
VN/A
p8456
sVPsysiphea
p8457
VN/A
p8458
sVthat-one-bear
p8459
VN/A
p8460
sVandrewett
p8461
VN/A
p8462
sVJa03
p8463
VN/A
p8464
sVniyou77
p8465
VN/A
p8466
sVgrahamsimmons
p8467
Vflawlessnoob
p8468
sVCaptain_McAsshole
p8469
VN/A
p8470
sVfishcatcake
p8471
VN/A
p8472
sVziggywiggy
p8473
VN/A
p8474
sVPrayingfriend
p8475
VN/A
p8476
sVhijynx427
p8477
VN/A
p8478
sVjoshoutloud
p8479
VN/A
p8480
sVsmellybird
p8481
VN/A
p8482
sVjamison88
p8483
VN/A
p8484
sVgambola
p8485
VN/A
p8486
sVpaularisingopinion
p8487
VN/A
p8488
sVDizzyIzzyW
p8489
VN/A
p8490
sVsiberian_whistle
p8491
VN/A
p8492
sVDonotdrinkthewater
p8493
VN/A
p8494
sVwildcatz311
p8495
VN/A
p8496
sVOperationBriPo
p8497
VN/A
p8498
sVthehungrythrowaway
p8499
VN/A
p8500
sVgreenbee202
p8501
VN/A
p8502
sVMamayoda
p8503
VN/A
p8504
sVsmalls852
p8505
VN/A
p8506
sVwhoresmack
p8507
VN/A
p8508
sVihavesomethings
p8509
VN/A
p8510
sVDesireeAnn106610
p8511
VN/A
p8512
sVvaderssoliloquies
p8513
VN/A
p8514
sV__C3__
p8515
VN/A
p8516
sVgothlips
p8517
VN/A
p8518
sVguyperonni
p8519
VN/A
p8520
sVTheSundanceKid45
p8521
Vfuqyocouch
p8522
sVnesquiksand
p8523
VN/A
p8524
sVtysmommy0831
p8525
VN/A
p8526
sVnicholsml
p8527
VN/A
p8528
sVwhyalltheglitter
p8529
VN/A
p8530
sVlonesomeky
p8531
VN/A
p8532
sVfreedominthefoliage
p8533
VN/A
p8534
sVI_Miss
p8535
VN/A
p8536
sVjt573
p8537
VN/A
p8538
sVGingy19
p8539
VN/A
p8540
sVBibleBeltAtheist
p8541
VN/A
p8542
sVcampbellseh
p8543
VN/A
p8544
sVb0unc37x
p8545
VN/A
p8546
sVPandSiper
p8547
VN/A
p8548
sVspikes1800
p8549
VN/A
p8550
sVmuffunz13
p8551
VN/A
p8552
sVClocktease
p8553
VN/A
p8554
sVtheanimator88
p8555
VN/A
p8556
sVmonolisa
p8557
VN/A
p8558
sVcubiczoeconia
p8559
VN/A
p8560
sVDaedalus256
p8561
VN/A
p8562
sVgetwhatuget
p8563
VN/A
p8564
sVRSMLancey
p8565
VN/A
p8566
sVFelidiaFeatherbottom
p8567
VN/A
p8568
sVkeyblade321
p8569
VN/A
p8570
sVdeere
p8571
VN/A
p8572
sVaviatorofscience
p8573
VN/A
p8574
sVllanox
p8575
VN/A
p8576
sVLwCrid
p8577
VN/A
p8578
sVmightiestmouse2003
p8579
VN/A
p8580
sVpurplefairy
p8581
VN/A
p8582
sVstevenflerl
p8583
VN/A
p8584
sVS0brlvn
p8585
VN/A
p8586
sVNotAtAllBenny
p8587
VN/A
p8588
sVquinncuatro
p8589
VN/A
p8590
sVneverdoblow
p8591
VN/A
p8592
sVOzKFodrotski
p8593
VN/A
p8594
sVmandahugandkis
p8595
VN/A
p8596
sVAbiding_Lebowski
p8597
VN/A
p8598
sVieatfoodsometimes
p8599
VN/A
p8600
sVEauNoire
p8601
VN/A
p8602
sVdeathsyce02
p8603
VN/A
p8604
sVKpac_0000
p8605
VN/A
p8606
sVZweistar
p8607
VN/A
p8608
sVms_cole19
p8609
VN/A
p8610
sVGuerrero22
p8611
VN/A
p8612
sVArugulaDeathSmash
p8613
VN/A
p8614
sVpanicbomb44
p8615
VN/A
p8616
sVxcorilynn
p8617
VN/A
p8618
sVBronans
p8619
VN/A
p8620
sVex-theist
p8621
VN/A
p8622
sVyatahazio
p8623
Vmiafria
p8624
sVvbran601
p8625
VN/A
p8626
sVricesock
p8627
Vforlornhope22
p8628
sVMananers
p8629
VN/A
p8630
sVAzA__
p8631
VN/A
p8632
sVRPhilosopher
p8633
VN/A
p8634
sVBoatzilla22
p8635
VN/A
p8636
sVJenna_Kitten
p8637
VN/A
p8638
sVdlenoxx
p8639
VN/A
p8640
sVmrparker55
p8641
VN/A
p8642
sVvoodoowizard
p8643
VN/A
p8644
sVThat_Urks_Me
p8645
VN/A
p8646
sVJack_Of_All_Meds
p8647
VN/A
p8648
sVBigBadDog
p8649
VN/A
p8650
sVstrikeralley
p8651
VN/A
p8652
sVtheonemankliq
p8653
VN/A
p8654
sVuncomfortable_pillow
p8655
VN/A
p8656
sVtethercat
p8657
VN/A
p8658
sVembarrassedaboutthis
p8659
VN/A
p8660
sVTheBossMan5000
p8661
VN/A
p8662
sVlodinick
p8663
VN/A
p8664
sVdasfeiz
p8665
VN/A
p8666
sVkick_the_chort
p8667
VN/A
p8668
sVTheUnrepententLurker
p8669
VN/A
p8670
sVSinnocent
p8671
Vfobbingmobius
p8672
sVTalesavo
p8673
VN/A
p8674
sVtooembarassedplshelp
p8675
VN/A
p8676
sVdboti
p8677
VN/A
p8678
sVnjankowski
p8679
VN/A
p8680
sVrichierich925
p8681
VN/A
p8682
sVOMGSX
p8683
VN/A
p8684
sVWhazzits
p8685
Vjengomez
p8686
sVwebrunner42
p8687
VN/A
p8688
sVRarararararar
p8689
VN/A
p8690
sVLowkeykeylow
p8691
VN/A
p8692
sVBrendanDlay
p8693
VN/A
p8694
sVwaldotherogue
p8695
VN/A
p8696
sVGuiadan
p8697
VN/A
p8698
sVsetcountzero
p8699
VN/A
p8700
sVefflixi
p8701
VN/A
p8702
sVKingCarnivore
p8703
VN/A
p8704
sVlhelmka
p8705
VN/A
p8706
sVTwoHeadedPanthr
p8707
VN/A
p8708
sVlives2cream
p8709
VN/A
p8710
sVLt_Shniz
p8711
VN/A
p8712
sVPwncho
p8713
VN/A
p8714
sVTallGlass
p8715
VN/A
p8716
sVbad_cab
p8717
VN/A
p8718
sVyoungdirty
p8719
VN/A
p8720
sVsierra217
p8721
VN/A
p8722
sVRettro
p8723
VN/A
p8724
sVSkeetle_Mcgorge
p8725
VN/A
p8726
sVfanciedtickle
p8727
VN/A
p8728
sVGuidoMcGee
p8729
VN/A
p8730
sVTheGooglePlex
p8731
VN/A
p8732
sVCrappyconnection
p8733
VN/A
p8734
sVth3cavalry
p8735
VN/A
p8736
sVandwithtthat
p8737
VN/A
p8738
sVhomelessgal
p8739
Vmcallanan
p8740
sVthehorrorchord
p8741
VN/A
p8742
sVScootaloo22
p8743
VN/A
p8744
sVGraywolves
p8745
VN/A
p8746
sVansonr
p8747
VN/A
p8748
sVIwearhats
p8749
VN/A
p8750
sVtaterpot
p8751
VCayucosKid
p8752
sVMushroomLizard
p8753
VN/A
p8754
sVmoderator000
p8755
VN/A
p8756
sVGetaPizza
p8757
VN/A
p8758
sVdadof3
p8759
VN/A
p8760
sVAragog
p8761
VN/A
p8762
sVHeaven87
p8763
VN/A
p8764
sVbingbangbooom
p8765
VN/A
p8766
sVmissmceachern
p8767
VN/A
p8768
sVentwithapenis
p8769
VN/A
p8770
sVBoSolaris
p8771
VN/A
p8772
sVsysadminwatdo
p8773
VN/A
p8774
sVRaidouKuzunoha
p8775
VN/A
p8776
sVTheNarv1901
p8777
VN/A
p8778
sVZynzynzyN
p8779
VN/A
p8780
sVForever_Flaccid
p8781
VN/A
p8782
sVVampiresagain
p8783
VN/A
p8784
sVKnittedOwl
p8785
VN/A
p8786
sVOmurchu
p8787
VN/A
p8788
sVgirlzmomtwo
p8789
VN/A
p8790
sVbeencaughtfapping
p8791
VN/A
p8792
sV2k0
p8793
VN/A
p8794
sVSATXreddit
p8795
VN/A
p8796
sVSteve_Zissou
p8797
VN/A
p8798
sVHeresTheSitch
p8799
VN/A
p8800
sVUCBCarebear
p8801
VN/A
p8802
sVerickk83
p8803
VN/A
p8804
sVkittybow
p8805
Vdontlikeclowns
p8806
sVTragic125
p8807
VN/A
p8808
sVODSTAdrianFii
p8809
VN/A
p8810
sVArmedSnobbery
p8811
VN/A
p8812
sVBigDaddyLurker
p8813
VN/A
p8814
sViKidCudi
p8815
VN/A
p8816
sVLionKatt
p8817
VN/A
p8818
sVkellierose
p8819
VN/A
p8820
sVdonamunns
p8821
VN/A
p8822
sVlrm102195
p8823
VN/A
p8824
sVdirtywook
p8825
V1st_account_i_swear
p8826
sVziggymilson
p8827
VN/A
p8828
sVSarahbear123
p8829
VN/A
p8830
sVaroracle
p8831
VN/A
p8832
sVLookNoHandlebars
p8833
VN/A
p8834
sVCandleEnds
p8835
VN/A
p8836
sVInvisllama
p8837
VN/A
p8838
sVVixen88
p8839
VN/A
p8840
sVMythodrome
p8841
VN/A
p8842
sVemmo245
p8843
VN/A
p8844
sVVirusDeleo1
p8845
VN/A
p8846
sVMitch2025
p8847
VN/A
p8848
sVBig-ass-titties
p8849
VN/A
p8850
sVwolf_redrum
p8851
VN/A
p8852
sVDarklordsauron
p8853
VN/A
p8854
sVroughdiamonds
p8855
VN/A
p8856
sVvickisam
p8857
VN/A
p8858
sVStarbuck0123
p8859
VN/A
p8860
sVGuiltEngine
p8861
VN/A
p8862
sVjkabash
p8863
VN/A
p8864
sVR3dds
p8865
VN/A
p8866
sVTaven_The_Bold
p8867
VN/A
p8868
sVcompto35
p8869
VN/A
p8870
sVelliottok
p8871
VN/A
p8872
sVamdra
p8873
VN/A
p8874
sVspaghetties
p8875
Vdjamberj
p8876
sVsmechile
p8877
VN/A
p8878
sVGoochGewitter
p8879
VN/A
p8880
sVaaronthehuman
p8881
VN/A
p8882
sVthunderpcats
p8883
VN/A
p8884
sVRogueNine
p8885
VN/A
p8886
sVpoutina
p8887
VN/A
p8888
sVsteamboatdavey
p8889
VN/A
p8890
sVwakedan
p8891
VN/A
p8892
sVjesmew
p8893
Vodot522
p8894
sVdavisescapeplan
p8895
VN/A
p8896
sVoneordinarylife
p8897
VN/A
p8898
sVplagel
p8899
VN/A
p8900
sVskinpeels
p8901
Vryanxm
p8902
sVSDBabe
p8903
VN/A
p8904
sVryansmommy
p8905
VN/A
p8906
sVgomental
p8907
VN/A
p8908
sVpaztime
p8909
VN/A
p8910
sVSerious_Table
p8911
VN/A
p8912
sVkrokounleashed
p8913
VN/A
p8914
sVRachel123456789
p8915
VN/A
p8916
sVqwertyweezel
p8917
VN/A
p8918
sVNiapino
p8919
VN/A
p8920
sVaFunnyWorldWeLiveIn
p8921
VN/A
p8922
sVetrius5
p8923
VN/A
p8924
sVmojo4460
p8925
VN/A
p8926
sVcalabresi
p8927
VN/A
p8928
sVtheloneliestgeek
p8929
VN/A
p8930
sVmrslowloris
p8931
VN/A
p8932
sVroxie1127
p8933
VN/A
p8934
sVCcaseyC
p8935
VN/A
p8936
sVShrapnelShock
p8937
VN/A
p8938
sVAlt948328549
p8939
VN/A
p8940
sVdannianne
p8941
VN/A
p8942
sVdonttrolljohn
p8943
VN/A
p8944
sVrinnanine
p8945
VN/A
p8946
sVhypchronic
p8947
VN/A
p8948
sVBowserscastle1234567
p8949
VN/A
p8950
sVanankletisasmallsock
p8951
VN/A
p8952
sVthrowaway121711
p8953
VN/A
p8954
sVbeatdownbutnotbroken
p8955
VN/A
p8956
sVcraigory45
p8957
VN/A
p8958
sVAaronAcousticide
p8959
VN/A
p8960
sVpbtechie
p8961
VN/A
p8962
sVRattaTatTat
p8963
VN/A
p8964
sVfullmetalutes
p8965
VN/A
p8966
sVmegthegreatone
p8967
VN/A
p8968
sVyeahmaybe
p8969
VN/A
p8970
sVTrapandRelease
p8971
VN/A
p8972
sVwilliamspam91
p8973
VN/A
p8974
sVicefall5
p8975
VN/A
p8976
sVkillhimalready
p8977
Vgadianton
p8978
sVdadoftwinboys
p8979
Vm2nu
p8980
sVFadedReality
p8981
VMsFit
p8982
sVjavi_intheair
p8983
VN/A
p8984
sVryanvoyles1
p8985
VN/A
p8986
sVneedsapizza
p8987
VN/A
p8988
sVHungryCouple
p8989
VN/A
p8990
sVisrael_regardie
p8991
VN/A
p8992
sVlookinatthegoodside
p8993
VN/A
p8994
sVpwitt2
p8995
VN/A
p8996
sVavalon18
p8997
VN/A
p8998
sVYellowBirdLadyFinger
p8999
VN/A
p9000
sVsbmode
p9001
VN/A
p9002
sVNakedLunchbox
p9003
Vwhosthatguru_v2
p9004
sVTHevil30
p9005
VN/A
p9006
sVAndrewTindall
p9007
VN/A
p9008
sVohsammyboy
p9009
VN/A
p9010
sVfuckitchuckit
p9011
VN/A
p9012
sVyun-
p9013
VN/A
p9014
sVFapotheosis
p9015
VN/A
p9016
sVjthall
p9017
VN/A
p9018
sVpyewacketcg
p9019
VN/A
p9020
sVcourse_you_do
p9021
VN/A
p9022
sVdillano609
p9023
VN/A
p9024
sVCrochetniac
p9025
VN/A
p9026
sVimaphuckingdog
p9027
VN/A
p9028
sVTurtledunkz
p9029
VN/A
p9030
sVf33dback
p9031
VN/A
p9032
sVartvandelay916
p9033
VN/A
p9034
sVamym91
p9035
VN/A
p9036
sVLynxx
p9037
VN/A
p9038
sVIkouze
p9039
VN/A
p9040
sVJewseephish
p9041
VN/A
p9042
sVLil_lubun
p9043
Vmasterboat
p9044
sV6995
p9045
VJimWill
p9046
sVBionic0n3
p9047
VN/A
p9048
sVEvrimnn13
p9049
VN/A
p9050
sVXxbatman_XD
p9051
VN/A
p9052
sVpipedreamexplosion
p9053
VN/A
p9054
sVtaythrash
p9055
VN/A
p9056
sVskys_hubby
p9057
VN/A
p9058
sVcavanaughs
p9059
VN/A
p9060
sVrobmpulse
p9061
VN/A
p9062
sVwhatisthisthing
p9063
VN/A
p9064
sVchalt0
p9065
Vthegeorge
p9066
sVTheOperaCar
p9067
VN/A
p9068
sVxtenext
p9069
VN/A
p9070
sVe-simonds
p9071
VN/A
p9072
sVSleeplessInTheSouth
p9073
VN/A
p9074
sVOrcasmic
p9075
VN/A
p9076
sVDooky-chan
p9077
VN/A
p9078
sVerikturner10
p9079
Viamaredditer
p9080
sVbreakupbluesthrowawa
p9081
VN/A
p9082
sVElaquidor
p9083
VN/A
p9084
sVWulfbane
p9085
VN/A
p9086
sVMrBearengar
p9087
VN/A
p9088
sVHepatitis_420
p9089
VN/A
p9090
sVhebisreal
p9091
VN/A
p9092
sVthelinestepper
p9093
VN/A
p9094
sVDannyJones
p9095
VN/A
p9096
sVMJKauz
p9097
VN/A
p9098
sVkaptainkeel
p9099
VN/A
p9100
sVKadenTau
p9101
VN/A
p9102
sVtomK1983
p9103
VN/A
p9104
sVtejmin
p9105
Voutofthewoods
p9106
sVabjackso
p9107
Vnygalz
p9108
sVgnarwalbacon
p9109
VN/A
p9110
sVKaysmommy
p9111
VN/A
p9112
sVG0ATLY
p9113
VN/A
p9114
sVamericanhitcher
p9115
VN/A
p9116
sVchalkdongler
p9117
VN/A
p9118
sVvilmarti
p9119
VN/A
p9120
sVKeitaroCoS
p9121
VN/A
p9122
sVbobbyllama
p9123
VN/A
p9124
sVismokedalltheshwag
p9125
VN/A
p9126
sVjbauer777
p9127
VN/A
p9128
sVlady_deirdra83
p9129
VN/A
p9130
sVsabresandbills
p9131
VN/A
p9132
sVotice5447
p9133
Vm2nu
p9134
sVP2thaG
p9135
VN/A
p9136
sVselfabortion
p9137
VN/A
p9138
sVuser20499288345
p9139
VN/A
p9140
sVCrayonManQuestion
p9141
VN/A
p9142
sVnorthcoast_lady
p9143
VN/A
p9144
sVSaintSnuggles
p9145
VN/A
p9146
sVStafiejman
p9147
VN/A
p9148
sVbonjourcava
p9149
VN/A
p9150
sVJamber_Jamber
p9151
VN/A
p9152
sVllamallanallama
p9153
VN/A
p9154
sVCynicalAssassin
p9155
VN/A
p9156
sVJokoAndy
p9157
VN/A
p9158
sVsmjase
p9159
VN/A
p9160
sVStagnent
p9161
VN/A
p9162
sVBlueLightDistrict
p9163
VN/A
p9164
sVscumbagbrainy
p9165
VN/A
p9166
sVXfairytalejunkiex
p9167
VN/A
p9168
sVtshinotu145
p9169
VN/A
p9170
sVvpal
p9171
Vfoki
p9172
sVstrugglingtogetby
p9173
VN/A
p9174
sVKennywalker
p9175
VN/A
p9176
sVmaliedoo
p9177
VN/A
p9178
sVloveforlennon
p9179
VN/A
p9180
sVjmelol
p9181
Vlyricist
p9182
sVkwmwtaj
p9183
VN/A
p9184
sVTherion6
p9185
VN/A
p9186
sVHungry4Pizza
p9187
VN/A
p9188
sVAntarix
p9189
VN/A
p9190
sValrightmike
p9191
VN/A
p9192
sVmatty509
p9193
VN/A
p9194
sVWhyMustTheyDie
p9195
VN/A
p9196
sVfoxclocks
p9197
VN/A
p9198
sVir0bot
p9199
VN/A
p9200
sVtehlolredditor
p9201
VN/A
p9202
sVmoldy_fingers
p9203
VN/A
p9204
sVMoFoSantaClaus
p9205
VN/A
p9206
sVRose_Lade
p9207
VN/A
p9208
sVkendall12321232
p9209
VN/A
p9210
sVmeSoLame
p9211
VN/A
p9212
sV4northftw
p9213
VN/A
p9214
sVkrpiper
p9215
Vpastafariantwit
p9216
sVBigNeecs
p9217
VN/A
p9218
sVrx7dude
p9219
VN/A
p9220
sVDorthyMantooth
p9221
VN/A
p9222
sVfreyant
p9223
VN/A
p9224
sVaustin944
p9225
VN/A
p9226
sVigotbigtitties
p9227
VN/A
p9228
sVloonybhatia
p9229
VN/A
p9230
sVWanderlustking236
p9231
VN/A
p9232
sVcevogel
p9233
VN/A
p9234
sVcupcakeDeb
p9235
VN/A
p9236
sVpooMonger
p9237
VN/A
p9238
sVHi_Im_yogibear
p9239
VN/A
p9240
sVDomDomRevolution
p9241
VN/A
p9242
sVmmb2ba
p9243
VN/A
p9244
sVChazzzzzz
p9245
VN/A
p9246
sVmoomilkmon
p9247
VN/A
p9248
sVdeftgsxr
p9249
VN/A
p9250
sVanthonyLe123
p9251
VN/A
p9252
sVblu_olivz
p9253
Vjohngalt1337
p9254
sVsmsaint
p9255
VN/A
p9256
sVDankJack
p9257
VN/A
p9258
sVPulgogi
p9259
VN/A
p9260
sVJacobRyanD
p9261
VN/A
p9262
sVdaveywaveybaby
p9263
VN/A
p9264
sVaint2proud2beg
p9265
VN/A
p9266
sVJastha
p9267
VN/A
p9268
sValabamasweet
p9269
VN/A
p9270
sVKentuckyFriedNinja
p9271
VN/A
p9272
sVcodax755
p9273
VN/A
p9274
sVoOREALLYOo
p9275
VN/A
p9276
sVcliffkleven
p9277
VN/A
p9278
sV_Mink
p9279
Vrealmkiller
p9280
sVevilon3
p9281
Vpalagoon
p9282
sVStill_mind
p9283
VN/A
p9284
sVMeggiePoo10
p9285
Vthedanindanger
p9286
sVneo1616
p9287
VN/A
p9288
sVrolling_st0ner
p9289
VN/A
p9290
sVwittyusername1987
p9291
VN/A
p9292
sVSpilly5
p9293
VN/A
p9294
sVAmbie79109
p9295
Vomnomagon
p9296
sVlolo91187
p9297
VN/A
p9298
sVhardbop1
p9299
VN/A
p9300
sVmagneteye
p9301
VN/A
p9302
sVviolalala
p9303
VN/A
p9304
sVHarryturd
p9305
VN/A
p9306
sVmiraculous_starlet
p9307
VN/A
p9308
sVKargashi
p9309
VN/A
p9310
sVganderson81
p9311
VN/A
p9312
sVsock-em-boppers
p9313
VN/A
p9314
sVblackbird82
p9315
VN/A
p9316
sVDakftw
p9317
VN/A
p9318
sVdeepfriedarjun
p9319
VN/A
p9320
sVRaiyuza
p9321
VN/A
p9322
sVnOoN3s
p9323
VN/A
p9324
sVroflrad
p9325
VN/A
p9326
sVMasterflan
p9327
VN/A
p9328
sVkatkelly57
p9329
VN/A
p9330
sVdryersheets
p9331
VN/A
p9332
sVPhungasaur
p9333
VN/A
p9334
sValicekobett
p9335
VN/A
p9336
sVpizzaforbartenders
p9337
VN/A
p9338
sVdirtyharry8
p9339
VN/A
p9340
sV_chmod777_
p9341
VN/A
p9342
sVihavethesads
p9343
Vericisweird
p9344
sVbkeiya
p9345
VN/A
p9346
sVyourmother-athon
p9347
VN/A
p9348
sVModemEZ
p9349
VN/A
p9350
sV_sil
p9351
VN/A
p9352
sVjramjram
p9353
VN/A
p9354
sVbitsofsick
p9355
VN/A
p9356
sVMuttly2001
p9357
VN/A
p9358
sVspriley
p9359
VN/A
p9360
sVZeinheiger
p9361
VN/A
p9362
sVNotreallymeinmadison
p9363
VN/A
p9364
sVNimues
p9365
Vtrollyx3
p9366
sVExOblivion
p9367
VN/A
p9368
sVantigravity_x
p9369
VN/A
p9370
sVsizlo
p9371
VN/A
p9372
sVTheStorySoFarBro
p9373
VN/A
p9374
sVTakeachanceonme
p9375
VN/A
p9376
sVSkittles19
p9377
VN/A
p9378
sVOffalAutopsy
p9379
VN/A
p9380
sVTysonus
p9381
VN/A
p9382
sVwolfhunterbob
p9383
VN/A
p9384
sVroobacca
p9385
VN/A
p9386
sVHungLikeAMidget
p9387
VN/A
p9388
sVcam843
p9389
VN/A
p9390
sVsubrosis
p9391
VN/A
p9392
sVedwards12691
p9393
VN/A
p9394
sVCixah
p9395
VN/A
p9396
sVsmewoo
p9397
VN/A
p9398
sVangelcdm228
p9399
VN/A
p9400
sVxyzornat
p9401
VN/A
p9402
sVBrownGuyLikesPie
p9403
Vharrisonfire
p9404
sVHush399
p9405
VN/A
p9406
sVAries2203
p9407
VN/A
p9408
sV__The__Doctor
p9409
Vraxxarn
p9410
sVwaltersworldwide
p9411
VN/A
p9412
sVsplott
p9413
VN/A
p9414
sVbau5k1ng
p9415
Vkrashenbern
p9416
sVTomDoughnitus
p9417
VN/A
p9418
sVBonedbyPaypal
p9419
Vomatrisha
p9420
sVlovly22
p9421
VN/A
p9422
sVcookie0076
p9423
VN/A
p9424
sVYepImBroke
p9425
Vthumpingarnt
p9426
sVEmperorXenu
p9427
VN/A
p9428
sVcherrymama
p9429
VN/A
p9430
sVm_chamberlin
p9431
VN/A
p9432
sVskumfuck
p9433
VN/A
p9434
sVKevinsBacon
p9435
VN/A
p9436
sVjhansipower
p9437
VN/A
p9438
sVshiv3rz
p9439
VN/A
p9440
sVAllen4083
p9441
VN/A
p9442
sVBuckfutters
p9443
Vjohngalt1337
p9444
sVblahblah34
p9445
VN/A
p9446
sVtaosk8r
p9447
VN/A
p9448
sVpilzkopf
p9449
Vsjmoll
p9450
sVhatescarrots
p9451
VN/A
p9452
sVVitaminFortified
p9453
VN/A
p9454
sVmclovinsauce
p9455
VN/A
p9456
sVLvl61Vaporeon
p9457
VN/A
p9458
sVBoobJank
p9459
VN/A
p9460
sVncktwt
p9461
VN/A
p9462
sVchrisbellttu
p9463
VN/A
p9464
sViamkaiser
p9465
VN/A
p9466
sVOnDaBlockSlanginRock
p9467
VN/A
p9468
sVhankgrill03
p9469
VN/A
p9470
sVsharp_endfo_sticking
p9471
VN/A
p9472
sVJustlaughaboutit
p9473
VN/A
p9474
sVSTHOA
p9475
VN/A
p9476
sVufsi
p9477
VN/A
p9478
sVpandemic
p9479
VN/A
p9480
sVspuffy_forever123
p9481
VN/A
p9482
sVchieftokenpuff6
p9483
VN/A
p9484
sVKarter44
p9485
VN/A
p9486
sVoscar8430
p9487
VN/A
p9488
sVszinther
p9489
VN/A
p9490
sVjovialkitten
p9491
VN/A
p9492
sVsam6374
p9493
Vgovalle
p9494
sVrth182
p9495
VN/A
p9496
sVartificialred
p9497
VN/A
p9498
sVafricanabarbie
p9499
VN/A
p9500
sVBrainDeadMuffin
p9501
VN/A
p9502
sVStarMech
p9503
Vkimi21
p9504
sVJoshancy
p9505
VN/A
p9506
sVccraig6277
p9507
VN/A
p9508
sVUndersurface
p9509
VN/A
p9510
sVASD_Sinfonian
p9511
VN/A
p9512
sVCaptBeeFart
p9513
Vverygoodname
p9514
sVhawkfeathers
p9515
Vhalftheman1
p9516
sVcompletelydrained270
p9517
VN/A
p9518
sVVenomheart
p9519
Venforce1
p9520
sVwanna_goober
p9521
Vsubliminal187
p9522
sVcluckles
p9523
VN/A
p9524
sVViridianVixen
p9525
VN/A
p9526
sVelectric_boogaloo06
p9527
VN/A
p9528
sVshaggyhair
p9529
VN/A
p9530
sVtruesauce
p9531
VN/A
p9532
sVLugeeBomb
p9533
VN/A
p9534
sVquakingandshaking
p9535
VN/A
p9536
sVpandaman0926
p9537
VN/A
p9538
sVguywiththeanklesocks
p9539
VN/A
p9540
sVjeswrestledabearonce
p9541
VN/A
p9542
sVaphorg
p9543
VN/A
p9544
sVtimtheinchanter
p9545
VN/A
p9546
sVChrisandanna
p9547
VN/A
p9548
sValiceann93
p9549
VN/A
p9550
sVfyiiamaspy
p9551
VN/A
p9552
sVmenehan
p9553
VN/A
p9554
sVmomof4boys
p9555
VN/A
p9556
sValexandraentendre
p9557
VN/A
p9558
sVladydontmine
p9559
VN/A
p9560
sVpdocmanov
p9561
VN/A
p9562
sVdoglover007
p9563
VN/A
p9564
sVOmNomdePlum
p9565
VN/A
p9566
sVcafriend
p9567
VN/A
p9568
sVrnelso23
p9569
VN/A
p9570
sVDogsAreCool55
p9571
VN/A
p9572
sVsayzar
p9573
VN/A
p9574
sVfatdp
p9575
VN/A
p9576
sVNebben
p9577
VN/A
p9578
sVUbb_zerve
p9579
VN/A
p9580
sV65daysofstatic
p9581
VN/A
p9582
sVYarbsful
p9583
VN/A
p9584
sVsarancape
p9585
VN/A
p9586
sVthechoop
p9587
VN/A
p9588
sVTommyHollywood
p9589
VN/A
p9590
sVjewishpopcorn
p9591
VN/A
p9592
sVandrea1017
p9593
VN/A
p9594
sVjdayment
p9595
VN/A
p9596
sVfrogers
p9597
VN/A
p9598
sVTomMaxwell
p9599
VN/A
p9600
sVseekingcerulean
p9601
VN/A
p9602
sVm0llyj
p9603
VN/A
p9604
sVpenguin9
p9605
VN/A
p9606
sVRobot_Legs
p9607
VN/A
p9608
sVCookie_Waffles
p9609
VN/A
p9610
sVeternalwhitemoon
p9611
VN/A
p9612
sVColLingusPoonhammer
p9613
Vunaspirateur
p9614
sVianingf
p9615
VN/A
p9616
sVadorhlb23
p9617
V2phresh
p9618
sVvomitisjustskimmilk
p9619
VN/A
p9620
sVShnoox
p9621
VN/A
p9622
sVprincesspentagon
p9623
Vantibread
p9624
sVshaboingdezzleknock
p9625
VN/A
p9626
sVScrambo
p9627
Vithinkimdoingthis
p9628
sVFoley_is_Good
p9629
VN/A
p9630
sVBrabbit12345
p9631
VN/A
p9632
sVnerdbaitplus3
p9633
Vibaheir2dathrone
p9634
sVdontsayohwell
p9635
Vpastafariantwit
p9636
sVNinwa
p9637
VN/A
p9638
sVRogerASmith55
p9639
VN/A
p9640
sVBlack_Floyd47
p9641
Vebitda1
p9642
sVgraphicdesignmorgan
p9643
VN/A
p9644
sVanita_pizza
p9645
VN/A
p9646
sVpictochick
p9647
Vafshin
p9648
sVBigPlunk
p9649
Vgama-go
p9650
sVbman23433
p9651
VN/A
p9652
sVsyn1734
p9653
VN/A
p9654
sVgryphon5245
p9655
VN/A
p9656
sVSabromex
p9657
VN/A
p9658
sVnomewe
p9659
VN/A
p9660
sVbebe7985
p9661
VN/A
p9662
sVFrenchFry5725
p9663
VN/A
p9664
sVgeek_swagg
p9665
VN/A
p9666
sVfknsewermoose
p9667
VN/A
p9668
sVdesignasaurus
p9669
VN/A
p9670
sVJollyman
p9671
VN/A
p9672
sVDirectorArea51
p9673
VN/A
p9674
sVSociallyAdeptPenguin
p9675
VN/A
p9676
sVTrebloc
p9677
Vincoherentrant
p9678
sVjcgentry
p9679
VN/A
p9680
sVmoocoo1
p9681
VN/A
p9682
sVLynziruffles
p9683
VN/A
p9684
sVAnAnimal
p9685
VN/A
p9686
sVMidNightSky
p9687
Vloki-laufeyson
p9688
sVblaxened
p9689
VN/A
p9690
sVMarc815
p9691
VN/A
p9692
sV3littlegrems
p9693
VN/A
p9694
sVsteamwolf90
p9695
VN/A
p9696
sVShorae
p9697
VN/A
p9698
sVkaysee2654
p9699
VN/A
p9700
sVtriemers
p9701
VN/A
p9702
sVTheDoctorZeus
p9703
Vneighborhoodstranger
p9704
sVTheCats_PJs
p9705
VN/A
p9706
sVkatiezine
p9707
VN/A
p9708
sVGlimpseOfReality
p9709
Vsectorfour
p9710
sVcafepressguy
p9711
VN/A
p9712
sV4RMYDUD3
p9713
VN/A
p9714
sVcowwww
p9715
VN/A
p9716
sVGrapejuiceBros
p9717
VN/A
p9718
sVJanetSnakehole_
p9719
VN/A
p9720
sVamotion7
p9721
VN/A
p9722
sVthesuperrad
p9723
VN/A
p9724
sVMCC5
p9725
VN/A
p9726
sVCastorSpring
p9727
VN/A
p9728
sVGov_RickPerry
p9729
VN/A
p9730
sVsarafalls
p9731
VN/A
p9732
sVporebadstarde
p9733
VN/A
p9734
sVGabrielNYC2012
p9735
VN/A
p9736
sVUniversityGyno
p9737
Vmadamepinkie
p9738
sVLashate
p9739
VN/A
p9740
sVasualum2002
p9741
VN/A
p9742
sVkickazzgoalie
p9743
VN/A
p9744
sVslayer_of_potatoes
p9745
VN/A
p9746
sVrunningonnubs
p9747
VN/A
p9748
sVNLynn789
p9749
VN/A
p9750
sVcutcopy
p9751
VN/A
p9752
sVnhcollegechic
p9753
VN/A
p9754
sVmeehan117
p9755
VN/A
p9756
sVconkliec
p9757
VN/A
p9758
sVjemsblock
p9759
VN/A
p9760
sVSilverback
p9761
VN/A
p9762
sVKawaiiQueen
p9763
Vdeathcabforpenguin
p9764
sVkdubz0r
p9765
Vcopred
p9766
sVgimpyone
p9767
VN/A
p9768
sVleadflanders
p9769
VN/A
p9770
sVmenurbabies
p9771
VN/A
p9772
sVSunakuNiwa
p9773
VN/A
p9774
sVchitejin
p9775
VN/A
p9776
sVDrunk_Uncle_Ted
p9777
VN/A
p9778
sVcaliforniawaitingx
p9779
VN/A
p9780
sVDirtyMcNasty
p9781
VN/A
p9782
sVThor_Odin_Son
p9783
VN/A
p9784
sVKitamerby
p9785
VN/A
p9786
sVkittysister91
p9787
VN/A
p9788
sVbenc1213
p9789
Vahensen
p9790
sVTeffen
p9791
VN/A
p9792
sVmynameispaulsimon
p9793
VN/A
p9794
sVwtfmercedes
p9795
VN/A
p9796
sVl0serl0ve7
p9797
VN/A
p9798
sVdisorientedhobo
p9799
VN/A
p9800
sVjeffp85
p9801
VN/A
p9802
sVRaviede
p9803
VN/A
p9804
sVeskiimo
p9805
Vthr
p9806
sVcrowdsurfer
p9807
VN/A
p9808
sVtvk4486
p9809
VN/A
p9810
sVluckydoo
p9811
VN/A
p9812
sVmhbelfry
p9813
VN/A
p9814
sVdarknessdfa
p9815
VN/A
p9816
sVzpoehlein12
p9817
VN/A
p9818
sVChimes61
p9819
VN/A
p9820
sVLitemode
p9821
VN/A
p9822
sVJELLY__FISTER
p9823
VN/A
p9824
sVTramMonkey
p9825
VN/A
p9826
sVkomoto13
p9827
VN/A
p9828
sVicemanGiveth
p9829
VN/A
p9830
sV3daughters2dogs1cat
p9831
VN/A
p9832
sVMrSlippyfist
p9833
VN/A
p9834
sVPodentOros
p9835
VN/A
p9836
sVArkanicus
p9837
VN/A
p9838
sVtd117
p9839
VN/A
p9840
sVLaurenBlake21
p9841
VN/A
p9842
sVpacmanfloataway
p9843
VN/A
p9844
sVrhubey
p9845
VN/A
p9846
sVelmariachi304
p9847
VN/A
p9848
sVOhuma
p9849
VN/A
p9850
sVarismaggiani
p9851
VN/A
p9852
sVsuzed
p9853
VN/A
p9854
sVchefjayke
p9855
VN/A
p9856
sVgenerallypositive
p9857
VN/A
p9858
sVbobmystery
p9859
V0mggames
p9860
sVtreepage
p9861
VN/A
p9862
sVkimk3
p9863
VN/A
p9864
sVimakephotosk
p9865
VN/A
p9866
sVsprocketcraft
p9867
VN/A
p9868
sVmindy2013
p9869
VN/A
p9870
sVTristanleecantcook
p9871
VN/A
p9872
sVkol13190
p9873
VN/A
p9874
sVjcneal04
p9875
VN/A
p9876
sVoneironautalis
p9877
Vfivestarsoul
p9878
sVAultra
p9879
VN/A
p9880
sVdjbsay
p9881
VN/A
p9882
sVKing_Hawking
p9883
VN/A
p9884
sVomarciddo
p9885
VEvilCactus
p9886
sVJamesChadThompson
p9887
VN/A
p9888
sVermahgerd_face
p9889
VN/A
p9890
sVIrishfanbuck
p9891
VN/A
p9892
sVgwennyrose
p9893
VN/A
p9894
sVReddit434838
p9895
VN/A
p9896
sVrobbbbbbbbbbbb
p9897
VN/A
p9898
sVsparklejackie
p9899
VN/A
p9900
sVjetaimemiko
p9901
VN/A
p9902
sVthelwynn
p9903
Vmooseindc
p9904
sVThe_Axelrod
p9905
Vkornywayz
p9906
sVStoned_Pelican
p9907
VN/A
p9908
sVvanman33
p9909
VN/A
p9910
sVKaozcore
p9911
VN/A
p9912
sVbry1982
p9913
VN/A
p9914
sVnomlah
p9915
VN/A
p9916
sVblindinganusofhope
p9917
VN/A
p9918
sVDe3ertf0x
p9919
VN/A
p9920
sVneesey5150
p9921
VN/A
p9922
sVthiscnidocyte
p9923
VN/A
p9924
sVTrouserSnake2992
p9925
VN/A
p9926
sVredditormom2011
p9927
VMisterGrizzly
p9928
sVhashashin710
p9929
VN/A
p9930
sVTechnosugar
p9931
VN/A
p9932
sVtxtsd
p9933
VN/A
p9934
sVOKnowUC
p9935
VN/A
p9936
sVxcris19x
p9937
VN/A
p9938
sVAsswater_Discoteca
p9939
VN/A
p9940
sVJabberBody
p9941
Vlogicday
p9942
sVJackpot96
p9943
VN/A
p9944
sVChavodelOcho
p9945
VN/A
p9946
sVFlanney
p9947
VN/A
p9948
sVannelysa
p9949
VN/A
p9950
sVkevonicus
p9951
VN/A
p9952
sVdoctorelliot
p9953
VN/A
p9954
sVdouglashill
p9955
VN/A
p9956
sVdreamendDischarger
p9957
VN/A
p9958
sVava_adore
p9959
VN/A
p9960
sVkadykimberbradburn
p9961
VN/A
p9962
sVrightdeadzed
p9963
VN/A
p9964
sVhexwise
p9965
VN/A
p9966
sVitsKOOLtobeGREEN
p9967
VN/A
p9968
sVin4everything
p9969
VN/A
p9970
sVSadAndHungry
p9971
VN/A
p9972
sVkyokoc
p9973
VN/A
p9974
sVismywifeawhore
p9975
VN/A
p9976
sVgrandma20101
p9977
VN/A
p9978
sVNiGHTSfan
p9979
VN/A
p9980
sVL33tm4st3r
p9981
VN/A
p9982
sVFILTHY_VIRGIN
p9983
VN/A
p9984
sVfaeriedustx
p9985
VN/A
p9986
sVcutemom27
p9987
VN/A
p9988
sVNed_Starks_Foot
p9989
VN/A
p9990
sVGiantBag
p9991
VN/A
p9992
sVKincade117
p9993
VN/A
p9994
sVArturos
p9995
VN/A
p9996
sVpizzafun
p9997
VN/A
p9998
sVSledgemau5
p9999
VN/A
p10000
sVhungrycollegekid
p10001
VN/A
p10002
sVAceavia
p10003
VN/A
p10004
sVsweetdaisy
p10005
VN/A
p10006
sVpizzathrowaway12314
p10007
VN/A
p10008
sVFeidhlim77
p10009
VN/A
p10010
sVketaminoru
p10011
VN/A
p10012
sVRamt_1
p10013
VN/A
p10014
sVswimfast111
p10015
VN/A
p10016
sVed_toast
p10017
VN/A
p10018
sVsanctusnirvana
p10019
Vjetboyterp
p10020
sVaforarmy
p10021
VN/A
p10022
sVdestructopop
p10023
VN/A
p10024
sVsister4sale
p10025
VN/A
p10026
sVTyeguy
p10027
Vdrsquishyhug
p10028
sVDangerNGrayce
p10029
VN/A
p10030
sVWeechickadee
p10031
VN/A
p10032
sVMiiiils
p10033
VN/A
p10034
sVNigerio
p10035
VN/A
p10036
sVAlaricV
p10037
VN/A
p10038
sVAwhMan
p10039
VN/A
p10040
sVBete-Noire
p10041
Vsolanumn
p10042
sVBeatPhr34k
p10043
VN/A
p10044
sVstarwynd43
p10045
VN/A
p10046
sVIcometodrum
p10047
VN/A
p10048
sVMellebelle16
p10049
VN/A
p10050
sVlawlessk
p10051
VN/A
p10052
sVphr3shcooki3s
p10053
VN/A
p10054
sVkisscakes
p10055
VN/A
p10056
sVjeffandstuff
p10057
VN/A
p10058
sVJTyler82
p10059
VN/A
p10060
sVBnutnative
p10061
VN/A
p10062
sVEsVachel
p10063
VN/A
p10064
sVShadom
p10065
VN/A
p10066
sVLurkingLikeABau5
p10067
VN/A
p10068
sVsmun92
p10069
VN/A
p10070
sVjstone0402
p10071
VN/A
p10072
sVsilverzone
p10073
VN/A
p10074
sVThe-Seldom-Seen-Kid
p10075
VN/A
p10076
sVClassyCreepyBastard
p10077
VN/A
p10078
sVchanlonxp1
p10079
VN/A
p10080
sVoh1berlin
p10081
Vm2nu
p10082
sVmagesquishy
p10083
VN/A
p10084
sVsir_scotch
p10085
VN/A
p10086
sVLittlemissMusical
p10087
VN/A
p10088
sVvonnemutt
p10089
VN/A
p10090
sVXanthien
p10091
VN/A
p10092
sVdprowan84
p10093
Vzstillman
p10094
sVRaxshi
p10095
Vdelicatecrush
p10096
sVBartholomewJones
p10097
VN/A
p10098
sVThrowayguy
p10099
VN/A
p10100
sVheylookitseliu
p10101
VN/A
p10102
sVwickawickawatts
p10103
VN/A
p10104
sVfauxrobot
p10105
VN/A
p10106
sVgoldenivy
p10107
VN/A
p10108
sVHowulikeit
p10109
Vhorny_toad2006
p10110
sVtheverybestusername
p10111
Vpizzamom
p10112
sViamthekawaiiprincess
p10113
VN/A
p10114
sV_BiPolarBear_
p10115
VN/A
p10116
sVkip256
p10117
VN/A
p10118
sVnyanking
p10119
VN/A
p10120
sVRetsopuck
p10121
VN/A
p10122
sVJorion
p10123
VN/A
p10124
sVDoesntLikeChicken
p10125
VN/A
p10126
sVtargetpi
p10127
VN/A
p10128
sVDirtyDirtyPerverts
p10129
VN/A
p10130
sVilikehamburgers
p10131
VN/A
p10132
sVVengefulOctopus
p10133
VN/A
p10134
sV0r1g1n4lg4m3r
p10135
VN/A
p10136
sVhippiemama
p10137
Vlettherebedwight
p10138
sVlukejones100
p10139
VN/A
p10140
sVmkaskavitch
p10141
VN/A
p10142
sVneon_neon
p10143
VN/A
p10144
sVCubcake
p10145
VN/A
p10146
sVmandyyyy040
p10147
VN/A
p10148
sVjordancam
p10149
VN/A
p10150
sVFlaxwenchPromise
p10151
VN/A
p10152
sVTimeToRepaint
p10153
VN/A
p10154
sVChempy
p10155
VN/A
p10156
sVHungryindenver
p10157
VN/A
p10158
sVkaarno
p10159
VN/A
p10160
sVdacookieman
p10161
VN/A
p10162
sVSoManyShades
p10163
VN/A
p10164
sVmararox
p10165
VN/A
p10166
sVMDMA420
p10167
VN/A
p10168
sVOosterhuis
p10169
VN/A
p10170
sVtigressstar
p10171
VSarTim
p10172
sValthor880
p10173
VN/A
p10174
sVSchpsych
p10175
VN/A
p10176
sVlewright
p10177
VN/A
p10178
sVjimnobodie
p10179
VN/A
p10180
sVduracell33
p10181
VN/A
p10182
sVilikedirt
p10183
VN/A
p10184
sVElvisBTwo
p10185
VN/A
p10186
sVpartychu
p10187
VN/A
p10188
sVbladebaka
p10189
VN/A
p10190
sVunforgiving_cake
p10191
Vprettyugly1
p10192
sVsammy1990
p10193
VN/A
p10194
sV5288299
p10195
VN/A
p10196
sVsallythrutheally
p10197
VN/A
p10198
sVimthat1girl
p10199
Vzandyman
p10200
sVPrefixOoblekk
p10201
VN/A
p10202
sVFrankMorris
p10203
VN/A
p10204
sVtomstonehouse
p10205
VN/A
p10206
sVXedma
p10207
VN/A
p10208
sVeuropeandaughter
p10209
VN/A
p10210
sVsinknuckle
p10211
VN/A
p10212
sVPhredman
p10213
VN/A
p10214
sVmrarthursimon
p10215
VN/A
p10216
sVKrashenbern
p10217
Vidtugyourboat
p10218
sVfoobar314
p10219
VN/A
p10220
sVaafter
p10221
VN/A
p10222
sVWe_The_Living
p10223
VN/A
p10224
sVBrokemans_throwaway
p10225
VN/A
p10226
sVCandlejac88
p10227
VN/A
p10228
sV951asshole
p10229
VN/A
p10230
sVflipperjack
p10231
VN/A
p10232
sVAgainstClint
p10233
VN/A
p10234
sVTheMarketer
p10235
Vsparty_party
p10236
sVWGDpizza
p10237
VN/A
p10238
sVPowerSpatula
p10239
VN/A
p10240
sVcolorsoverflow
p10241
VN/A
p10242
sVcorpusdelenda
p10243
VN/A
p10244
sVkilkel
p10245
VN/A
p10246
sVshinefire
p10247
VN/A
p10248
sVfriedpundit
p10249
VN/A
p10250
sVkelleym8021
p10251
VN/A
p10252
sVbeklemesalonu
p10253
VN/A
p10254
sVGadyLaLa
p10255
VN/A
p10256
sVNikonElite
p10257
VN/A
p10258
sVonecanwish
p10259
VN/A
p10260
sVlivingfields
p10261
VN/A
p10262
sVfantasyjecti0n
p10263
VN/A
p10264
sVelikat
p10265
VN/A
p10266
sVdonttakemywordforit
p10267
VN/A
p10268
sVStevieBecker
p10269
VN/A
p10270
sVKolanie
p10271
VN/A
p10272
sVorange_lotus
p10273
VN/A
p10274
sVCUTIEJUDY
p10275
Vjimswife9
p10276
sVtrislerb
p10277
VN/A
p10278
sVmintchocchip
p10279
VN/A
p10280
sVCael87
p10281
VN/A
p10282
sVjacag2004
p10283
VN/A
p10284
sVParsionez
p10285
VN/A
p10286
sVlll111lll
p10287
VN/A
p10288
sVcupcakelarissa
p10289
VN/A
p10290
sVcarbonfountain
p10291
VN/A
p10292
sVcatmom9
p10293
VN/A
p10294
sVAHinSC
p10295
VN/A
p10296
sVjamesboyan79
p10297
VN/A
p10298
sVFuzzatron
p10299
VN/A
p10300
sVmsparadoxical
p10301
VN/A
p10302
sVxyzzxzzyx
p10303
VN/A
p10304
sVMarivia
p10305
Vboatdude
p10306
sVColinCancer
p10307
VN/A
p10308
sVRelaxRelapse405
p10309
VN/A
p10310
sV6regmcc
p10311
VN/A
p10312
sVunclejim22
p10313
VN/A
p10314
sVsol-
p10315
VN/A
p10316
sVMattkubed
p10317
VN/A
p10318
sVrickrossgrunts
p10319
VN/A
p10320
sVThrowaway980008
p10321
Vbeatnikbillygoat
p10322
sVestranged_jackrabb
p10323
VN/A
p10324
sVMarsisDed
p10325
VN/A
p10326
sVNolandCT
p10327
VN/A
p10328
sVvamosj
p10329
VN/A
p10330
sVFabulousfrostmage
p10331
VN/A
p10332
sVksweeley
p10333
VN/A
p10334
sVJ_Justice
p10335
VN/A
p10336
sVsaskatoonhobo
p10337
VN/A
p10338
sVDelStudent20
p10339
VN/A
p10340
sVMysticedge
p10341
Vdowney_ryan
p10342
sVAmmo333
p10343
VN/A
p10344
sVdekutam
p10345
VN/A
p10346
sVlunbicaijiao
p10347
VN/A
p10348
sVbluedreams39
p10349
VN/A
p10350
sVplayuglyforkevin
p10351
VN/A
p10352
sVknoxontholos
p10353
VN/A
p10354
sVthcidiot
p10355
VN/A
p10356
sVmarckshark
p10357
VN/A
p10358
sVBistroMathematics
p10359
VN/A
p10360
sVLivingWithHoarders
p10361
VN/A
p10362
sVMilesaaway
p10363
VN/A
p10364
sVwoolah
p10365
VN/A
p10366
sVEDJE
p10367
VN/A
p10368
sVyall_weird
p10369
Vthisfreaknguy
p10370
sVPhantomOSX
p10371
VN/A
p10372
sVDecidedly_Average
p10373
VN/A
p10374
sVJustaRatStory
p10375
VN/A
p10376
sVAustinPlease
p10377
VN/A
p10378
sVCat_Shampoo
p10379
VN/A
p10380
sVArchJustin
p10381
VN/A
p10382
sVscreaminginpussy
p10383
VN/A
p10384
sVanafiihayaty
p10385
VN/A
p10386
sVSTRetard
p10387
VN/A
p10388
sVKibblets
p10389
VN/A
p10390
sVAkaiya
p10391
VN/A
p10392
sVRiddy86
p10393
VN/A
p10394
sVxPsalms
p10395
VN/A
p10396
sVSecretus2
p10397
VN/A
p10398
sVAbbie82
p10399
VN/A
p10400
sVdoctorcynicism
p10401
VN/A
p10402
sVSwiss36
p10403
VN/A
p10404
sVHungry_hungryhippo87
p10405
VN/A
p10406
sVbuildlegosnow
p10407
VN/A
p10408
sVJafarMayNeedGlasses
p10409
Vbakersdozen13
p10410
sVArtwithoutartists
p10411
VN/A
p10412
sVstegogo
p10413
VN/A
p10414
sVZsymon
p10415
VN/A
p10416
sVInSidious425
p10417
VN/A
p10418
sVbusybeemommy
p10419
VN/A
p10420
sVknittingturtles
p10421
VN/A
p10422
sVspacemao
p10423
VN/A
p10424
sVkaylapgh
p10425
VN/A
p10426
sVIanrcampbell
p10427
VN/A
p10428
sVSorryButStsly
p10429
VN/A
p10430
sVMetalheadzaid
p10431
VN/A
p10432
sVsoy__juan
p10433
VN/A
p10434
sVLostOne86
p10435
VN/A
p10436
sVExposuree
p10437
VN/A
p10438
sVsaranglinux
p10439
VN/A
p10440
sVneirad
p10441
VN/A
p10442
sVsniperjohn
p10443
VN/A
p10444
sVspine75
p10445
VN/A
p10446
sVEliteMaster
p10447
VN/A
p10448
sVzeezey
p10449
VN/A
p10450
sVxPostScriptx
p10451
VN/A
p10452
sVduncanjewett
p10453
VN/A
p10454
sVSolvecho
p10455
VN/A
p10456
sVI_post_stuff
p10457
VN/A
p10458
sVrayofsunshine1110
p10459
VN/A
p10460
sVthrowitalloutfriends
p10461
VN/A
p10462
sVChrisand11
p10463
VN/A
p10464
sVlittlemonky
p10465
VN/A
p10466
sVyungbroccoli
p10467
VN/A
p10468
sVbatmanlight
p10469
VN/A
p10470
sVAsmaClementine
p10471
VN/A
p10472
sVFarKingCnut
p10473
VN/A
p10474
sVscapplua
p10475
VN/A
p10476
sVhabbadooba
p10477
VN/A
p10478
sVDjdude128
p10479
VN/A
p10480
sVaviancreature
p10481
VN/A
p10482
sVmaddexx
p10483
VN/A
p10484
sVsuprknowva
p10485
VN/A
p10486
sVTyrinasoarus
p10487
VN/A
p10488
sVcuriousinhistory
p10489
VN/A
p10490
sVApollan
p10491
VN/A
p10492
sVbeachgirl91
p10493
VN/A
p10494
sVnsobleski
p10495
VN/A
p10496
sVlockwolf
p10497
VN/A
p10498
sVanamespeltwrong
p10499
VN/A
p10500
sVgweezer
p10501
VN/A
p10502
sVhmcps89
p10503
VN/A
p10504
sVwhattodo22789
p10505
VN/A
p10506
sVdivendi
p10507
VN/A
p10508
sVTheAverageRedditUser
p10509
VN/A
p10510
sVBElannaLaForge
p10511
VN/A
p10512
sVradicalpancake
p10513
VN/A
p10514
sVIncog-neat0
p10515
VN/A
p10516
sVwandlore
p10517
VN/A
p10518
sVTheGreatGildersleeve
p10519
VN/A
p10520
sVubertuba
p10521
VN/A
p10522
sVLadelthia
p10523
VN/A
p10524
sVjudyisapunk321
p10525
VN/A
p10526
sVSoToAnTrAx
p10527
VN/A
p10528
sVbripdokmont
p10529
VN/A
p10530
sVAzilmak
p10531
VN/A
p10532
sVirover
p10533
VN/A
p10534
sVajauholawola
p10535
VN/A
p10536
sVcheddarcheesepringle
p10537
VN/A
p10538
sVpichofly
p10539
VN/A
p10540
sVasdfom
p10541
VN/A
p10542
sVFutureInanity
p10543
VN/A
p10544
sVmadkiro101
p10545
VN/A
p10546
sVRainbowstarscreamx3
p10547
VN/A
p10548
sVBackToBionic
p10549
VN/A
p10550
sVBisFitty
p10551
VN/A
p10552
sVjtcglasson
p10553
VN/A
p10554
sVDasRegalCag
p10555
VN/A
p10556
sVdoveTail_
p10557
VN/A
p10558
sVProgrammingAllar
p10559
VN/A
p10560
sVsmileyjeanx3
p10561
VN/A
p10562
sVjuniormantis
p10563
VN/A
p10564
sVSomeGuyOnReddit123
p10565
VN/A
p10566
sVreprocessedclouds
p10567
VN/A
p10568
sVMexicaliBlues42
p10569
VN/A
p10570
sVJ1389
p10571
VN/A
p10572
sVbestpartsoflonely
p10573
Vpizzamom
p10574
sVshannbot
p10575
VN/A
p10576
sVdr_spaceout
p10577
VN/A
p10578
sVgary7
p10579
VN/A
p10580
sVorphenshadow
p10581
VN/A
p10582
sVAndreaGreyx
p10583
VN/A
p10584
sVPhillyQ19
p10585
VN/A
p10586
sVzikus
p10587
VN/A
p10588
sVWaitwtfisthis
p10589
VN/A
p10590
sVLadyBrecky
p10591
VN/A
p10592
sVfroggigger
p10593
VN/A
p10594
sVSillyHatsOnly1123
p10595
VN/A
p10596
sVemotep
p10597
VN/A
p10598
sVburningplanet
p10599
VN/A
p10600
sVPDExplorer
p10601
VN/A
p10602
sVtaransean
p10603
VN/A
p10604
sVmsmunn87
p10605
VN/A
p10606
sVSooJ_Bear
p10607
VN/A
p10608
sVARoguePumpkin
p10609
VN/A
p10610
sVCptLeon
p10611
VN/A
p10612
sVCMDRtweak
p10613
VN/A
p10614
sVapplekitty
p10615
VN/A
p10616
sVlurchman
p10617
VN/A
p10618
sVvampyromorph
p10619
VN/A
p10620
sVOl_Geiser
p10621
Vmrsbirdies
p10622
sVtallkid100
p10623
VN/A
p10624
sVswanson3775
p10625
VN/A
p10626
sVchelloveckskunk
p10627
VN/A
p10628
sVslapsack
p10629
VN/A
p10630
sVHIGHer_ENTucation
p10631
VN/A
p10632
sVsoflaboy
p10633
VN/A
p10634
sVtiger_lily87
p10635
VN/A
p10636
sVCthomte
p10637
VN/A
p10638
sVwindofboe
p10639
VN/A
p10640
sVBrabinto
p10641
VN/A
p10642
sVminimallyeschew
p10643
VN/A
p10644
sVZack93
p10645
VN/A
p10646
sVbarrygusey
p10647
VN/A
p10648
sVgrunge420
p10649
VN/A
p10650
sVmistressbliss
p10651
VN/A
p10652
sVSladeownsyou
p10653
VN/A
p10654
sVDynexxx
p10655
VN/A
p10656
sVWhitechapelPrime
p10657
Vadamsstash
p10658
sVawthumaustin
p10659
VN/A
p10660
sVmuffinmania583
p10661
VN/A
p10662
sVAccioNeedles
p10663
Vcrakhed
p10664
sVflipandzef
p10665
VN/A
p10666
sVgttaluvredditors
p10667
VN/A
p10668
sVGarbanian
p10669
VN/A
p10670
sVColonCatastrophe
p10671
VN/A
p10672
sVBBDB282
p10673
VN/A
p10674
sVsae223
p10675
Vlaskoriff
p10676
sVbooperiii
p10677
VN/A
p10678
sVMiss_Anoma_Lee
p10679
VN/A
p10680
sVsonichedghog
p10681
Vfatmanjogging
p10682
sVDomPolanco
p10683
VN/A
p10684
sVCBV
p10685
VN/A
p10686
sVaguywithacellphone
p10687
VN/A
p10688
sVgrafittiscootaloo
p10689
VN/A
p10690
sVparkerxo
p10691
VN/A
p10692
sVmissg83191
p10693
VN/A
p10694
sVsolarbang
p10695
VN/A
p10696
sVKugru
p10697
VN/A
p10698
sVDani779
p10699
VN/A
p10700
sVcrmsonspo
p10701
VN/A
p10702
sVHowd_it_get_burned
p10703
VN/A
p10704
sVMyLifeIsABeach
p10705
VN/A
p10706
sVthetruefrozn
p10707
VN/A
p10708
sVdesperateandhungry
p10709
VN/A
p10710
sVwasp2356
p10711
VN/A
p10712
sVDmurr6
p10713
VN/A
p10714
sVBerettaVendetta
p10715
VN/A
p10716
sVSuperDave2U
p10717
VN/A
p10718
sVOxist
p10719
VN/A
p10720
sVKlink-a-dink-dink
p10721
VN/A
p10722
sVgeeklove1013
p10723
VN/A
p10724
sVmkeene91101
p10725
VN/A
p10726
sVxjems
p10727
VN/A
p10728
sVPhonieMcRingRing
p10729
VN/A
p10730
sVhippydippy
p10731
VN/A
p10732
sVm4ngo
p10733
VN/A
p10734
sVApplebuddha
p10735
VN/A
p10736
sVomegam0
p10737
VN/A
p10738
sVGrayswandlr
p10739
VN/A
p10740
sVLaRouxRenard
p10741
VN/A
p10742
sVKeeperofEncarta
p10743
VN/A
p10744
sVyoloisharam
p10745
VN/A
p10746
sVswitzx
p10747
VN/A
p10748
sVnicosalakar
p10749
VN/A
p10750
sVthepigeonmn
p10751
VN/A
p10752
sVqueersmut
p10753
Vbgoodrbcareful
p10754
sVjtw497
p10755
VN/A
p10756
sVnumberthirteen
p10757
VN/A
p10758
sVcommonreddituser
p10759
Vmoomoocowninja
p10760
sVnickylvst
p10761
VN/A
p10762
sVipopiad
p10763
VN/A
p10764
sVAddison87
p10765
VN/A
p10766
sVHandyman79
p10767
VN/A
p10768
sVhendrixnf
p10769
VN/A
p10770
sVpaisleyswift
p10771
VN/A
p10772
sVlovingdad1982
p10773
VN/A
p10774
sVManyPencils
p10775
VN/A
p10776
sVjme413
p10777
VN/A
p10778
sVgibmunnehorbanu
p10779
VN/A
p10780
sVShaolinShade
p10781
VN/A
p10782
sVEcchi-Dono
p10783
VN/A
p10784
sVRockMondo
p10785
VN/A
p10786
sVthin_crust
p10787
VN/A
p10788
sVProblemzone
p10789
VN/A
p10790
sVtummytune
p10791
VN/A
p10792
sVdumbledohhhh
p10793
VN/A
p10794
sVTK-fett
p10795
VN/A
p10796
sVgabenelsonKPB3292
p10797
VN/A
p10798
sVsnicklefrizz
p10799
VN/A
p10800
sVkajin0
p10801
VN/A
p10802
sVspatimouth01
p10803
VN/A
p10804
sVfriedsooshi
p10805
Vmenmybabies
p10806
sVThorbraig
p10807
VN/A
p10808
sVthm09
p10809
VN/A
p10810
sVmicahville
p10811
VN/A
p10812
sVChadOcho87
p10813
VN/A
p10814
sVpunk_lecture
p10815
VN/A
p10816
sVapainfulthrowaway
p10817
VN/A
p10818
sVLidemi
p10819
VN/A
p10820
sVA-random-redditor85
p10821
VN/A
p10822
sVblastedramen
p10823
VN/A
p10824
sVjousou
p10825
VN/A
p10826
sVAkAxDustin
p10827
VN/A
p10828
sVRakeGirl
p10829
VN/A
p10830
sVrnumur
p10831
VN/A
p10832
sVNeuronut
p10833
VN/A
p10834
sVbrom333
p10835
VN/A
p10836
sVchom__
p10837
VN/A
p10838
sVweloveheidi
p10839
VN/A
p10840
sVhfbguy355
p10841
VN/A
p10842
sVBroly3k8
p10843
VN/A
p10844
sVgirlfrom1977
p10845
VN/A
p10846
sVvfquaked
p10847
VN/A
p10848
sVbrazen
p10849
VN/A
p10850
sVBugsBunnysCouch
p10851
VN/A
p10852
sVaverdin
p10853
VN/A
p10854
sVS3XPanther
p10855
VN/A
p10856
sVmathewryan
p10857
VN/A
p10858
sVnullpuppy
p10859
VN/A
p10860
sVredfordjay
p10861
VN/A
p10862
sVmoralityboy
p10863
VN/A
p10864
sVetwl18
p10865
VN/A
p10866
sVblattacker
p10867
VN/A
p10868
sVNitrous42
p10869
VN/A
p10870
sVmaasaw
p10871
VN/A
p10872
sVwhatalaymedown
p10873
Vadidabiking
p10874
sVmaddiepatties
p10875
VN/A
p10876
sVfrappering
p10877
VN/A
p10878
sVZelgardis
p10879
VN/A
p10880
sVhiimmiimii
p10881
VN/A
p10882
sVBlackberryCheese
p10883
Vns0
p10884
sVMasternova
p10885
VN/A
p10886
sVgolga8963
p10887
VN/A
p10888
sVMorbas
p10889
Vthr
p10890
sViFightForUsers
p10891
VN/A
p10892
sVTheMrCartz
p10893
VN/A
p10894
sVmanwith13uses
p10895
VN/A
p10896
sVmindlesscervantes
p10897
VN/A
p10898
sVFrodoUnderhill
p10899
VN/A
p10900
sVdemocritus2
p10901
VN/A
p10902
sVAyzh
p10903
VN/A
p10904
sVabigaila
p10905
VN/A
p10906
sVwhasittoya
p10907
VN/A
p10908
sVJipepii
p10909
VN/A
p10910
sV___VK
p10911
VN/A
p10912
sVKameko4Real
p10913
VN/A
p10914
sVHungry89
p10915
VN/A
p10916
sVdanddel
p10917
VN/A
p10918
sVjaredellison86
p10919
VN/A
p10920
sVItsIoki
p10921
VN/A
p10922
sVnataleejones
p10923
VN/A
p10924
sVhowgoyoufar
p10925
VN/A
p10926
sVhiiilary
p10927
VN/A
p10928
sVthatonejoychick
p10929
VN/A
p10930
sVMagicalMurderCat
p10931
VN/A
p10932
sVLupoScuro
p10933
VN/A
p10934
sVSeeeeu
p10935
VN/A
p10936
sVMaiser
p10937
VN/A
p10938
sVfailsocks
p10939
VN/A
p10940
sVprideisanindulgence
p10941
VN/A
p10942
sVamo25
p10943
VN/A
p10944
sVgladudontknowme
p10945
VN/A
p10946
sVelitekaoss
p10947
VN/A
p10948
sVpfcvenus
p10949
VN/A
p10950
sVoctopolous
p10951
VN/A
p10952
sVdjtempest
p10953
VN/A
p10954
sVWangChi
p10955
VN/A
p10956
sVitswhatiam
p10957
VN/A
p10958
sVheyitslongdude
p10959
VN/A
p10960
sVicecool988
p10961
VN/A
p10962
sVSoundSalad
p10963
VN/A
p10964
sVUngratefulPeon
p10965
VN/A
p10966
sVDarlingDestruction
p10967
VN/A
p10968
sVsdu1627
p10969
VN/A
p10970
sVshinnjr
p10971
VN/A
p10972
sV3loodwolf117
p10973
VN/A
p10974
sVcindisART
p10975
VN/A
p10976
sVqueenofthesmileys
p10977
VN/A
p10978
sVUnfoldablePages
p10979
VN/A
p10980
sVburritoboss
p10981
VN/A
p10982
sVCatManDontDo
p10983
VN/A
p10984
sVquantum14
p10985
VN/A
p10986
sVksnides
p10987
VN/A
p10988
sVashleypenny
p10989
VN/A
p10990
sVpostulate5
p10991
VN/A
p10992
sVwtfosaurus
p10993
VN/A
p10994
sVYUBYUB2424
p10995
VN/A
p10996
sVinternet-arbiter
p10997
VN/A
p10998
sVstuckINokc
p10999
VN/A
p11000
sVBrizzwold
p11001
VN/A
p11002
sVbeccarob
p11003
VN/A
p11004
sVhypn0fr0g
p11005
VN/A
p11006
sVailurus42
p11007
VN/A
p11008
sVtasha0615
p11009
VN/A
p11010
sVvizvanz
p11011
VN/A
p11012
sVCloverhart
p11013
VN/A
p11014
sVMistrCreazil
p11015
VN/A
p11016
sVAlphaDogAntone
p11017
Vthe_oneders
p11018
sVtheSubliminalist
p11019
VN/A
p11020
sVtruegreenarmy
p11021
VN/A
p11022
sVbloodybadger
p11023
VN/A
p11024
sVBrewPounder
p11025
VN/A
p11026
sVsmakers1
p11027
VN/A
p11028
sVBrunomars14
p11029
VN/A
p11030
sVSlapthatbass84
p11031
Vthelastman
p11032
sVnightlily
p11033
VN/A
p11034
sVColoredPencil
p11035
VN/A
p11036
sVfools79
p11037
VN/A
p11038
sVEvermore
p11039
VN/A
p11040
sVSpikesbad78
p11041
VN/A
p11042
sVleutroyal
p11043
VN/A
p11044
sVfollow_your_bliss
p11045
VN/A
p11046
sVantiandrea
p11047
VN/A
p11048
sVZenAndKindness
p11049
VN/A
p11050
sVshanemeh
p11051
Vlgm1117
p11052
sVScribsMcScrabble
p11053
VN/A
p11054
sVAwarewolf2
p11055
VN/A
p11056
sVceltictamuril
p11057
VN/A
p11058
sVnyati55
p11059
VN/A
p11060
sVStdruler
p11061
VN/A
p11062
sVstraightphag
p11063
VN/A
p11064
sVMuhnazer
p11065
VN/A
p11066
sVthatprettichick
p11067
VN/A
p11068
sVChainsawPolice
p11069
VN/A
p11070
sVrocketzsolly
p11071
VN/A
p11072
sVmaaanda
p11073
VN/A
p11074
sVCamJ26
p11075
VN/A
p11076
sVgingerOHsnap
p11077
VN/A
p11078
sVrachray24
p11079
VN/A
p11080
sVho0ber
p11081
VN/A
p11082
sVOkfineyou
p11083
VN/A
p11084
sVlingkingprime
p11085
VN/A
p11086
sVsilvernarnia
p11087
VN/A
p11088
sVaschmalzer
p11089
VN/A
p11090
sVmpl9109
p11091
VN/A
p11092
sVantphany
p11093
VN/A
p11094
sVjaynus
p11095
VN/A
p11096
sVbooger_butt
p11097
VN/A
p11098
sVchickenwing22
p11099
VN/A
p11100
sVSweetpeamommy
p11101
VN/A
p11102
sVrussxbox
p11103
VN/A
p11104
sVcorporatecashcow
p11105
VN/A
p11106
sVGiantNunu
p11107
VN/A
p11108
sVtriforcehoardie
p11109
Vedrondol
p11110
sVkylawls
p11111
Vshrapnull
p11112
sVTheElDiablo
p11113
VN/A
p11114
sVrarar
p11115
VN/A
p11116
sVpvrc
p11117
VN/A
p11118
sVgimpz
p11119
VN/A
p11120
sVblowjay_simpson
p11121
VN/A
p11122
sVusftampa
p11123
VN/A
p11124
sVankillanessie
p11125
Vzelmerszoetrop
p11126
sVTigerbanger115
p11127
VN/A
p11128
sVTheChrizby
p11129
VN/A
p11130
sVmochisimo
p11131
VN/A
p11132
sViLoveYouu21
p11133
VN/A
p11134
sVm4nu
p11135
VN/A
p11136
sVRobogoon
p11137
VN/A
p11138
sVfoursouls
p11139
VN/A
p11140
sVsarascientaster
p11141
VN/A
p11142
sVsongforpizza
p11143
VN/A
p11144
sVtheclosetwriter
p11145
VN/A
p11146
sViambeard
p11147
VN/A
p11148
sVSteve50013
p11149
VN/A
p11150
sVkillyoureparents
p11151
VN/A
p11152
sVcomradeyeltsen
p11153
VN/A
p11154
sVChilliPowderMeth
p11155
VN/A
p11156
sVexplodar
p11157
VN/A
p11158
sVAquintesce
p11159
Vincrediblep4ss
p11160
sVhalupki
p11161
VN/A
p11162
sVlxh039
p11163
VN/A
p11164
sVGrwl
p11165
VN/A
p11166
sVArmyTurtles
p11167
VN/A
p11168
sVMarius_et_Eponine
p11169
VN/A
p11170
sVMelanieS
p11171
VN/A
p11172
sVStarkOne
p11173
VN/A
p11174
sVMesmerale
p11175
VN/A
p11176
sVbaccathatassup
p11177
VN/A
p11178
sVwolin018
p11179
VN/A
p11180
sVLauraar
p11181
VN/A
p11182
sVemileepaige
p11183
VN/A
p11184
sVj_like
p11185
VN/A
p11186
sVJRutterbush
p11187
VN/A
p11188
sVMasta-Blasta
p11189
VN/A
p11190
sVkousun122
p11191
VN/A
p11192
sVseawest_lowlife
p11193
VN/A
p11194
sVrandom2502
p11195
VN/A
p11196
sVPlusUltras
p11197
VN/A
p11198
sVdosborne85
p11199
VN/A
p11200
sVMedulum
p11201
VN/A
p11202
sVcinemocracy
p11203
VN/A
p11204
sVchaoticpix93
p11205
VN/A
p11206
sVUnfrozenCavemanLaw
p11207
VN/A
p11208
sVbL1Nd
p11209
VN/A
p11210
sVCitedAardvark9
p11211
VN/A
p11212
sVPlatinumPenguin
p11213
VN/A
p11214
sVFaroffhighways
p11215
VN/A
p11216
sVmeanstreaklarry
p11217
VN/A
p11218
sVcarltonbankz
p11219
Vthe_jury_is_out
p11220
sVHonourandapenis
p11221
VN/A
p11222
sVTommytwotoesknows
p11223
VN/A
p11224
sVaodhrua
p11225
VN/A
p11226
sVPeachesandPie
p11227
VN/A
p11228
sVEmmaMay
p11229
VN/A
p11230
sVbasskitten-
p11231
VN/A
p11232
sVreginalove84
p11233
VN/A
p11234
sVandrewguenther
p11235
VN/A
p11236
sVjessicadontbite
p11237
VN/A
p11238
sVtiredmomto5
p11239
VN/A
p11240
sVnicolerhoades
p11241
VN/A
p11242
sVRapeyTheSpermWhale
p11243
VN/A
p11244
sVsocialclash
p11245
VN/A
p11246
sVwhatisajewanyway
p11247
VN/A
p11248
sVLolleroo
p11249
VN/A
p11250
sVmemodinosaur
p11251
VN/A
p11252
sVgwenniegrrl
p11253
VN/A
p11254
sVDajw1364
p11255
VN/A
p11256
sVkaysmomma
p11257
VN/A
p11258
sVrandomlychatspeople
p11259
VN/A
p11260
sVmadigascar
p11261
VN/A
p11262
sVTheesunbro
p11263
VN/A
p11264
sVStingray8
p11265
VN/A
p11266
sVlilhorn
p11267
VN/A
p11268
sVwitty_or_not_here
p11269
VN/A
p11270
sVHungryMoblin
p11271
VChairmanW
p11272
sVshittyTaco
p11273
Viheartsunrise04
p11274
sVelement33
p11275
Vjohngalt1337
p11276
sVDiscountPuppies
p11277
VN/A
p11278
sVhumansareyum
p11279
VN/A
p11280
sVlikeabaw5
p11281
VN/A
p11282
sVTiaraBear21
p11283
VN/A
p11284
sVstesal
p11285
VN/A
p11286
sVCabe6403
p11287
VN/A
p11288
sVmustafabot
p11289
VN/A
p11290
sVtwatwasthat
p11291
VN/A
p11292
sVfucking_cockatiel
p11293
VN/A
p11294
sVdonkeybuns
p11295
VN/A
p11296
sVGOP_WHIP
p11297
VN/A
p11298
sVsbirche
p11299
VN/A
p11300
sVmneal
p11301
VN/A
p11302
sVstarvingintn
p11303
VN/A
p11304
sVEmiscudi
p11305
VN/A
p11306
sVSch1308
p11307
VN/A
p11308
sVturbojuice
p11309
VN/A
p11310
sVnaruhinagirl
p11311
VN/A
p11312
sVServeSatan
p11313
VN/A
p11314
sVwilliambueti
p11315
VN/A
p11316
sVPrincessMLR
p11317
VN/A
p11318
sVphikapjack
p11319
VN/A
p11320
sVTheOriginalHavoc
p11321
VN/A
p11322
sVSwimmerGirl7
p11323
VN/A
p11324
sVEmploymentFail
p11325
Vsalbito
p11326
sVcoupleinneed
p11327
VN/A
p11328
sVMistressLT
p11329
VN/A
p11330
sVtbfallout
p11331
VN/A
p11332
sVDiP203
p11333
VN/A
p11334
sVlastmonth
p11335
VN/A
p11336
sVultrafatsumo
p11337
VN/A
p11338
sVHenry_Rowengartner
p11339
VN/A
p11340
sVSilvrbreeze
p11341
VN/A
p11342
s.