(dp0
Vha_rumph
p1
Vpclinger
p2
sVBottleman
p3
VReillyBoy
p4
sVAsmaJones
p5
Vjme413
p6
sVkrpiper
p7
Vpastafariantwit
p8
sVawxomecross514
p9
Vkgros004
p10
sVsteezy1
p11
Vcdjpurple
p12
sVnoperfectplace
p13
Vghotisgirl06
p14
sVJabberBody
p15
Vlogicday
p16
sVp0ns
p17
Vsgeng
p18
sVAbsoluteHero
p19
Vjohnfactorial
p20
sVsanctusnirvana
p21
Vjetboyterp
p22
sVandstuff
p23
Vyour_never_alone
p24
sVAmpix0
p25
Vredditg0nad
p26
sVLoneKharnivore
p27
Vroxieh
p28
sVkullus
p29
Vmr_jeep
p30
sVSoManyMinutes
p31
Vtesformes
p32
sVbabababigian
p33
Vknitchick
p34
sVNightsfaded
p35
Vclouds_rach
p36
sVOl_Geiser
p37
Vmrsbirdies
p38
sVerikturner10
p39
Viamaredditer
p40
sVgirlinacoma
p41
Vfuzzywumpkis
p42
sVBrilliantBen
p43
Vwingsalone
p44
sVmrshll
p45
Vcoldheat
p46
sVDwabbleDwabble
p47
Vninjaliwa
p48
sVgreyshadow_7
p49
Vjetboyterp
p50
sVLachryman
p51
VBioraiku
p52
sVunfinator
p53
Vyunododat
p54
sVactivitus
p55
Vjimwll
p56
sVhautegauche
p57
Vczhunc
p58
sVTheSundanceKid45
p59
Vfuqyocouch
p60
sVwarchamp7
p61
Vfastizio6176
p62
sVMushbroom
p63
Valrightillwrite2
p64
sVdcarrrey
p65
Vjay_niel
p66
sVGetDisowned
p67
Vkramapple
p68
sVI_raped-I_rape_cats
p69
Vchupanibre25
p70
sVjustaMOMonreddit
p71
Verinpierce
p72
sVTheNamesIrrelevant
p73
Vglinda_da_good_witch
p74
sVWhitechapelPrime
p75
Vadamsstash
p76
sVboysenburry
p77
Vcodemonkeylikefritos
p78
sVNatelieOne
p79
VYarrg
p80
sV4xmasbro
p81
Vjeanralpheo
p82
sVshameaway
p83
Vreillyboy
p84
sVallieeilla
p85
Vdanteburning
p86
sVAccioNeedles
p87
Vcrakhed
p88
sVfrankslittlebeauties
p89
Vynoty3k
p90
sV_Mink
p91
Vrealmkiller
p92
sVevilon3
p93
Vpalagoon
p94
sVSalemkylar
p95
VSome1Random
p96
sVVinnysin
p97
Vtableofgeeks
p98
sVMeggiePoo10
p99
Vthedanindanger
p100
sVgreenbeen1
p101
Vnathanpaulyoung
p102
sV_redman
p103
Vpineapple_wolf
p104
sVtapedeckghost
p105
Vded_reckoning
p106
sVsae223
p107
Vlaskoriff
p108
sVAmbie79109
p109
Vomnomagon
p110
sVshhmile
p111
Valxbnt
p112
sVphab3k
p113
Vjenadactyl
p114
sVglycerinSOAPbox
p115
Vjeffreyed
p116
sVcolorblindnick
p117
Vmazdarx7guy
p118
sVross5781
p119
Vhand_out
p120
sVjennyinstereo
p121
Vstevevstheworld
p122
sVdadoftwinboys
p123
Vm2nu
p124
sVjeffreydonger
p125
Vcarseycritter
p126
sVpandarawr
p127
VIdTugYourBoat
p128
sVSpinks
p129
Vdeborahb45231
p130
sVTyeguy
p131
Vdrsquishyhug
p132
sVMattOnADinosaur
p133
Vwhubbard
p134
sVcinematicandstuff92
p135
Vdonthatemasticate
p136
sVCaptainFuckingPlanet
p137
Vmexta
p138
sVcoldsandovercoats
p139
Vmmmcandy
p140
sVBete-Noire
p141
Vsolanumn
p142
sVImpreza91
p143
Vkingkaimaui
p144
sVzimpirate
p145
Vkigood
p146
sVohmytvc15
p147
Vsynth3tk
p148
sVblueoctopus
p149
Vrogers4201
p150
sVwhowriter
p151
Vgogogadgetstat
p152
sVDenise65
p153
Vjski5711
p154
sVsoulbash
p155
Vleftnewdigg
p156
sVkb13733
p157
Vphreggs
p158
sVSafria
p159
Vbotw
p160
sVhollyallen
p161
Vdeus_ex_eagles
p162
sVMSopenMyMind85
p163
Vpastafariantwit
p164
sVihavethesads
p165
Vericisweird
p166
sVsonichedghog
p167
Vfatmanjogging
p168
sVLiterallyProbably
p169
Vdezmodez
p170
sVFembotty
p171
Vwomg
p172
sVhitno2004
p173
Vgovalle
p174
sVCXLVII
p175
Vlogicday
p176
sVyatahazio
p177
Vmiafria
p178
sVll0ll0ll0
p179
Vsbrinkley1104
p180
sVstarlight03
p181
Vscrovak
p182
sVricesock
p183
Vforlornhope22
p184
sVCrusnik909
p185
Vshort_lurker
p186
sVThomasTheDankEngine
p187
Vmfbyrne
p188
sVBurritoDevice
p189
Vpsm321
p190
sVSt0len
p191
Vnygalz
p192
sVxyz66
p193
Vincoherentrant
p194
sVMegainPhoto
p195
Vflamingcow
p196
sVadrearly
p197
Vm2nu
p198
sVyampuffs
p199
Vmr-smor
p200
sVNimues
p201
Vtrollyx3
p202
sVqueersmut
p203
Vbgoodrbcareful
p204
sVithinkimdoingthis
p205
Vamarkson
p206
sVinfuriated_walmart
p207
Vevilsalmon
p208
sVcommonreddituser
p209
Vmoomoocowninja
p210
sVoh1berlin
p211
Vm2nu
p212
sVantgly
p213
Vbearvivant
p214
sVelephantangelchild
p215
VSarTim
p216
sVexpandyourroots
p217
Vwhosthatguru_v2
p218
sVBigBoss722
p219
Vmoshimoochi
p220
sVcourtnutty
p221
Vpastafariantwit
p222
sVphotography444
p223
Viamseth
p224
sVluiseuc
p225
Vchicharito1821
p226
sVDoomedJanissary
p227
Vrainerios
p228
sVtealie13
p229
Vkaboose666
p230
sVRhymesWithEloquent
p231
Vanarchyreigns
p232
sVhuuuungryredditor
p233
Vlaz42
p234
sVBrownGuyLikesPie
p235
Vharrisonfire
p236
sVflinteastwood
p237
Vraavyn
p238
sV__The__Doctor
p239
Vraxxarn
p240
sVRose94
p241
Vboredaustralian
p242
sVWhazzits
p243
Vjengomez
p244
sVFlessen0
p245
Vlaneage
p246
sVDrynian
p247
Vdirtypaws
p248
sVHowulikeit
p249
Vhorny_toad2006
p250
sVtheverybestusername
p251
Vpizzamom
p252
sVPorcelainPoet
p253
Vleftnewdigg
p254
sVnissie1
p255
Villgiveyouthekey
p256
sVheartagram_ben
p257
Vbubblegumgills
p258
sVBonedbyPaypal
p259
Vomatrisha
p260
sVpuraasneira
p261
Vjabberworx
p262
sVrose_tyler_fan
p263
Velementalrain
p264
sVYepImBroke
p265
Vthumpingarnt
p266
sVdummyhead
p267
Vfrankto
p268
sVnerdalicious85
p269
Vmstina
p270
sVmollymoosesays
p271
Volivertw1st
p272
sVSLNapster
p273
Vrhystatic
p274
sVfriedsooshi
p275
Vmenmybabies
p276
sVImponaut
p277
Vpaisley8827
p278
sVdamustardtiger
p279
Vincoherentrant
p280
sVCatnipCotters
p281
Vuninvitedthirteenth
p282
sVLaheyDrinks
p283
Vpandyfackerlling
p284
sVklairedee
p285
Vjuggalofx
p286
sVBuckfutters
p287
Vjohngalt1337
p288
sVmizozozowo
p289
Vsueolsen
p290
sVilea316
p291
Vhearip88
p292
sVhippiemama
p293
Vlettherebedwight
p294
sVTe5ter
p295
Vltshrink
p296
sVpilzkopf
p297
Vsjmoll
p298
sVjnorthup0620
p299
Vphoto
p300
sVhomelessgal
p301
Vmcallanan
p302
sVRaven_Madd
p303
Vosk213
p304
sVRainbowStar
p305
Vboatdude
p306
sVtaterpot
p307
VCayucosKid
p308
sVzombieinferno
p309
Vninjaliwa
p310
sVbiffle
p311
Vjetboyterp
p312
sVbeanieb
p313
Vthenewblueblood
p314
sVT3ph13
p315
Vglinda_da_good_witch
p316
sVyawnlikeyoumeanit
p317
Vclarle
p318
sVWayward54
p319
Vafriendlysortofchap
p320
sVmsmisfit138
p321
Vdaner54
p322
sVRed_Chaos1
p323
Vgoodgodamighty
p324
sVpretty_honest_guy
p325
Vpastafariantwit
p326
sVsoapbarrace
p327
Vleochen
p328
sVNnyy
p329
Vmr_jeep
p330
sVWindel
p331
Vimperialviolet
p332
sVczerniana
p333
Vhermanobluth
p334
sVawana56
p335
Vithinkimdoingthis
p336
sVdevonjackson
p337
Vin2itiveact
p338
sVRenegade_Journo
p339
Vraspberryseltzer
p340
sVaSnuggletummie
p341
Vi_like_owls
p342
sVtigressstar
p343
VSarTim
p344
sVNoWordToSaveThee
p345
Vimmabeatchoo
p346
sVSugarRushSlt
p347
Vsynth3tk
p348
sVdprowan84
p349
Vzstillman
p350
sVsam6374
p351
Vgovalle
p352
sVPand0rah
p353
Vkramapple
p354
sVbutteredpotatoman
p355
Vlivingmaster
p356
sVdemon8rix
p357
Vmr_jeep
p358
sVBlackberryCheese
p359
Vns0
p360
sVFaaln
p361
Vpastafarian
p362
sVMorbas
p363
Vthr
p364
sVOscar_Rowsdower
p365
VDickBaggins
p366
sVStarMech
p367
Vkimi21
p368
sVkittybow
p369
Vdontlikeclowns
p370
sVDevron_System
p371
Vm2nu
p372
sVCaptBeeFart
p373
Vverygoodname
p374
sVhawkfeathers
p375
Vhalftheman1
p376
sVRobotBuddha
p377
Vunmoderated
p378
sVwanna_goober
p379
Vsubliminal187
p380
sVunforgiving_cake
p381
Vprettyugly1
p382
sViHardlyEverComment
p383
Vjohngalt1337
p384
sVFetidFlowers
p385
Vall_aflunters
p386
sVTommyTenToes
p387
Vchalt0
p388
sVNerdWith_A_Tan
p389
VRZF291
p390
sVslagathor51
p391
Vgenerallyclueless
p392
sVroguediamond
p393
Vjabberworx
p394
sVimthat1girl
p395
Vzandyman
p396
sVKrashenbern
p397
Vidtugyourboat
p398
sVrubenik
p399
Vvensik
p400
sVFramingHips
p401
Vpookie85
p402
sVj14vv
p403
Vsecretsweetheart
p404
sVconstantSarcasm
p405
V1stGenRex
p406
sVd0nt_b1ink
p407
Vpizzamom
p408
sVstarvedin
p409
Velectronicsnailmail
p410
sVAlphaDogAntone
p411
Vthe_oneders
p412
sVcogitaveritas
p413
Vpseudo_prodigal_son
p414
sVpoup_soup_boogie
p415
Vcyndikins
p416
sVTheMarketer
p417
Vsparty_party
p418
sVbeardykins
p419
Vjetboyterp
p420
sVchristbeatty
p421
Vmmmcandy
p422
sVstonerd
p423
Vpwndcake
p424
sVDeleccles
p425
Vegmose
p426
sVKFCatz
p427
Vbetter_with_salt
p428
sVsalsgirl0
p429
Vgoodguygregirl
p430
sVpKreate
p431
VBriguy9876
p432
sVRainbowDashPro
p433
Vsamantha797
p434
sVFreshCitrus
p435
Volivertw1st
p436
sVDetached09
p437
Vglinda_da_good_witch
p438
sVchriscosta77
p439
Vch31415
p440
sVkimi21
p441
Vjeremybeadle
p442
sVdeeter16323
p443
Vinstant_japanese
p444
sVMentlegenBacon
p445
Viheartoptimusprime
p446
sVgootray
p447
Vastrogliide
p448
sVMiniMoog
p449
Viamtheharpy
p450
sVdutchholland
p451
Vairmanhand
p452
sVsecretlyalone
p453
Vmr_jeep
p454
sVPolly10
p455
Vfogdelune
p456
sVSmokehTheBear
p457
Vcmdbash
p458
sVariqisab0ss
p459
Vbrightdotcom
p460
sVBangThyHeadChild
p461
Vwho_is_kaiser_soze
p462
sVCUTIEJUDY
p463
Vjimswife9
p464
sVRaxshi
p465
Vdelicatecrush
p466
sVEcyg
p467
Vthreedice
p468
sVRaeFlynne
p469
Vflipfapper
p470
sVakystics
p471
Vprovidencepariah
p472
sVthewaterballoonist
p473
Vnelliebean
p474
sVyixing
p475
Vthr
p476
sVtjk2795
p477
Vstarfireliz
p478
sVpon_de_rring
p479
Vzandyman
p480
sVEntangledphoton
p481
Vpaulinator
p482
sVAustonian87
p483
Vangiowhiz1
p484
sVspaghetties
p485
Vdjamberj
p486
sVZebattlefieldz
p487
Vbgoodrbcareful
p488
sVColLingusPoonhammer
p489
Vunaspirateur
p490
sVKappn
p491
Vin2itiveact
p492
sVnjdevils2626
p493
Vbceltics933
p494
sVnetizenbane
p495
Vladyjanegr
p496
sVloriann14
p497
Vmclwlm
p498
sVOtherRobotLuke
p499
Vbenkeiofthehillpeopl
p500
sVloudmast
p501
Vvinceidon
p502
sVKimmikaze78
p503
Vsumpinlikedat
p504
sVslartbarg
p505
Vwensul
p506
sVadorhlb23
p507
V2phresh
p508
sVhospitaltapes
p509
Vduckydoom
p510
sVSinnocent
p511
Vfobbingmobius
p512
sVTurkilla
p513
Vrhynovirus
p514
sVTesticleTophat
p515
Vtwister17
p516
sVpandapat
p517
Vbridgetonarnia
p518
sVMarivia
p519
Vboatdude
p520
sVprincesspentagon
p521
Vantibread
p522
sVNotWant
p523
Vnotbumble
p524
sVjesmew
p525
Vodot522
p526
sVwhatalaymedown
p527
Vadidabiking
p528
sVVenomheart
p529
Venforce1
p530
sVLakesideHerbology
p531
VFelipe_O
p532
sVScrambo
p533
Vithinkimdoingthis
p534
sVspazmodial
p535
Vthr
p536
sVnerdbaitplus3
p537
Vibaheir2dathrone
p538
sVdontsayohwell
p539
Vpastafariantwit
p540
sVThrowaway980008
p541
Vbeatnikbillygoat
p542
sVallaside
p543
Vpizzaman2012
p544
sVRahvinsix
p545
Vjayce513
p546
sVnientara
p547
Vtanyagal2
p548
sVATwoms
p549
Velbonio
p550
sVDesperateInAustin87
p551
Vtarable
p552
sVskinpeels
p553
Vryanxm
p554
sVslipnslide91
p555
Vmonkeyhouse
p556
sVBlack_Floyd47
p557
Vebitda1
p558
sVNeeps89
p559
Vabrham_smith
p560
sVMarcianTobay
p561
Vpastafariantwit
p562
sVmercmaid
p563
Vgloriouspeanut
p564
sVBigPlunk
p565
Vgama-go
p566
sVduckydoom
p567
Viamaslacker246
p568
sVSlapthatbass84
p569
Vthelastman
p570
sVcoranai
p571
Vcookiedoh
p572
sVriotxjess
p573
Vstillers412
p574
sVpictochick
p575
Vafshin
p576
sVsheilathen
p577
Vbenmk
p578
sVKawaiiQueen
p579
Vdeathcabforpenguin
p580
sVMysticedge
p581
Vdowney_ryan
p582
sVAlphaTJH
p583
Vfatalie
p584
sVportablefan
p585
Vmr_jeep
p586
sV303win
p587
Vdeyona
p588
sVWhiskey_Joe
p589
Vwchill
p590
sVdirtywook
p591
V1st_account_i_swear
p592
sVshanemeh
p593
Vlgm1117
p594
sVskull_glitch
p595
VDEStudent
p596
sVShadowElliot
p597
Vmaverick44
p598
sVTrebloc
p599
Vincoherentrant
p600
sVPterrific
p601
Vharrisonfire
p602
sVneonrose
p603
Vm2nu
p604
sVpwhiller
p605
V_kill-fx_
p606
sVbau5k1ng
p607
Vkrashenbern
p608
sVomarciddo
p609
VEvilCactus
p610
sVcrg78750
p611
Vmr_jeep
p612
sVyall_weird
p613
Vthisfreaknguy
p614
sVMidNightSky
p615
Vloki-laufeyson
p616
sVspacedout83
p617
Vfrankreynolds
p618
sVPaperCrates
p619
Vmmmcandy
p620
sVTheDoctorZeus
p621
Vneighborhoodstranger
p622
sVkimmyjay
p623
Vodd-one-out
p624
sVBensteez
p625
Vtrust_me_im_a_panda
p626
sVJeffRoyale
p627
Vk-dawgg
p628
sVohem
p629
Vneogodfather
p630
sVDietPepsi20oz
p631
Vcaladanbrood23
p632
sVGODDAMNLitreOfCOLA
p633
Vthehopelesswanderer
p634
sVjustinfrederick
p635
Vstraha21
p636
sVGlimpseOfReality
p637
Vsectorfour
p638
sVzachthesquid
p639
Vdsledz
p640
sVSorinSaakat
p641
Vtashiwa
p642
sVloadedtomcat
p643
Vjetboyterp
p644
sVkillhimalready
p645
Vgadianton
p646
sVfattyboombaladee
p647
Vjohngalt1337
p648
sVmsm1ssy
p649
Vthr
p650
sVrituyen
p651
Vcoconutcake
p652
sVFadedReality
p653
VMsFit
p654
sVMegaross
p655
Vgold-coin
p656
sVPatmybody
p657
Vrammikins
p658
sVFlooMad
p659
Vtanyagal2
p660
sVscbryant
p661
Vclashin74
p662
sVmollymcbutter1
p663
Vxxwinchell23xx
p664
sVbugsinamber
p665
Vidtugyourboat
p666
sVJafarMayNeedGlasses
p667
Vbakersdozen13
p668
sVtriforcehoardie
p669
Vedrondol
p670
sVPeetrius
p671
Vbgoodrbcareful
p672
sVkylawls
p673
Vshrapnull
p674
sVgracebatmonkey
p675
Vdyslexicpea
p676
sVfreakish-neko
p677
Vbigbadjew
p678
sVThe_black_Community
p679
Vfugknuckles
p680
sVswilltastic
p681
Visothien
p682
sV-notagirl-
p683
VIrritableOwlSyndrome
p684
sVUniversityGyno
p685
Vmadamepinkie
p686
sVNakedLunchbox
p687
Vwhosthatguru_v2
p688
sVdenalexa13a
p689
Vanotherguy2
p690
sVxoyie
p691
Vdranai
p692
sVlost_in_ky
p693
Viheartsunrise04
p694
sVinnovindil
p695
Vfoki
p696
sVj41d3n
p697
Vpuppeteer107
p698
sVankillanessie
p699
Vzelmerszoetrop
p700
sVdarwin57
p701
Vjesses_girl
p702
sVEpicLakai
p703
Vblackleatherrain
p704
sVKeevtara
p705
Vgratefulstringcheese
p706
sVnancynaturally
p707
Vtanyagal2
p708
sVOhpheliac
p709
Vmorzinbo
p710
sVguitarist231
p711
Vhungrytrex
p712
sVWishIWereHere
p713
Vdonitsu
p714
sVkittybiscuits
p715
Vjetboyterp
p716
sVrikkums
p717
Vlocuester
p718
sVKozii
p719
Voverripebanana
p720
sVkdubz0r
p721
Vcopred
p722
sVpuffinmaster86
p723
Videm22
p724
sVpungellin
p725
Vdrownyourfears
p726
sVsenior2012
p727
Vsartim
p728
sViprizefighter
p729
Vmvs5191
p730
sVLil_lubun
p731
Vmasterboat
p732
sV6995
p733
VJimWill
p734
sVbananandrea
p735
Vthemanateeman
p736
sVLittleMissBlue
p737
Vpkbooo
p738
sVAquintesce
p739
Vincrediblep4ss
p740
sVa_wizard_diddit
p741
Voosp
p742
sVPsychochan
p743
Vmkeanon
p744
sVconbel
p745
Vtuckednip
p746
sVTheDanthrax
p747
Vminecraft_is_hipster
p748
sVAbsinthe42
p749
Vjetboyterp
p750
sVenneathought
p751
Vjerematic
p752
sVbenc1213
p753
Vahensen
p754
sVbestpartsoflonely
p755
Vpizzamom
p756
sVJustBlewMyLoad
p757
Vb4tty0n3
p758
sVchalt0
p759
Vthegeorge
p760
sVVote_Gravel
p761
VRyzome
p762
sVHideaki02
p763
Vaboveyou5280
p764
sVocpmbrat
p765
Vmayquiri
p766
sVSykotik
p767
Vazzip_oAR
p768
sVfrackthatbitch
p769
Vyoasty
p770
sVSatheling
p771
Vscott2chicago
p772
sVNomsfud
p773
Vfogdelune
p774
sVimveryhungry
p775
Vtdralston94
p776
sVeskiimo
p777
Vthr
p778
sVelspazzz
p779
Vtoafka
p780
sVelastic-love
p781
Vsdtacoma
p782
sVrshepa1555
p783
Vkiltedman
p784
sVFreeThinkerLee
p785
Vfancy_lad
p786
sVmdax8414
p787
Vdestudent
p788
sVswdpwnzdggr
p789
Vleftnewdigg
p790
sVgetoutofherestaIker
p791
Vladyjanegr
p792
sVbburchibanez
p793
Vmy2penniesworth
p794
sVblu_olivz
p795
Vjohngalt1337
p796
sVajthesecond
p797
Vraopanon
p798
sVHekain
p799
Vz0bie
p800
sVLymeMN
p801
Vsevenzig
p802
sVcarltonbankz
p803
Vthe_jury_is_out
p804
sVSpagherica
p805
Vdezmodez
p806
sVcriwolv
p807
Vyommey
p808
sVLovePenguin333
p809
Vkhalki
p810
sVbleeding_dying_love
p811
Vkmlweather
p812
sVCreepyCoyote
p813
Vjleichtman
p814
sVdarthfapper
p815
Vharrisonfire
p816
sVAPICTUREOFAWHALE
p817
Vrazzlethemall
p818
sVtejmin
p819
Voutofthewoods
p820
sVabjackso
p821
Vnygalz
p822
sVmellomeh
p823
Vcutfloss
p824
sVkevka
p825
Vcgkush
p826
sVceevar
p827
Vjohngalt1337
p828
sVjjcrux
p829
Vpsm321
p830
sVtulsapuppy
p831
Vmycatownsme
p832
sVchylilith
p833
Vleftnewdigg
p834
sVmoosebot
p835
Vbiochrome
p836
sVxxrocksteadyxx
p837
Vdezmodez
p838
sVEmostarcraft
p839
VThreedice
p840
sVNephrastar
p841
VKYLE-BROFLOSKI
p842
sVShpook
p843
Vjetboyterp
p844
sVotice5447
p845
Vm2nu
p846
sVbobmystery
p847
V0mggames
p848
sVSpandexisbad
p849
Vmassawyrm
p850
sVSigmaValentine
p851
Vpizzamom
p852
sViheartreddit420
p853
Vhogfathom
p854
sVAllSkrewedUp
p855
Veetzatrap1300
p856
sVEaeelil
p857
Vtanyagal2
p858
sVtynosaur
p859
Vninjaliwa
p860
sVoneironautalis
p861
Vfivestarsoul
p862
sVshittyTaco
p863
Viheartsunrise04
p864
sVelement33
p865
Vjohngalt1337
p866
sVEncounterJake
p867
Vdanilee88
p868
sVHungryMoblin
p869
VChairmanW
p870
sVElemori
p871
Vprimio
p872
sVyhwksa
p873
Vnandorocker
p874
sVclimb0r
p875
Vanthonybsd
p876
sVMaaronClopland
p877
Vnicko9y
p878
sVCeleryMonster
p879
Vforeignporn
p880
sVvivi767
p881
Vstillurking
p882
sVtheshizle
p883
Vthetruedarkone
p884
sVMaltMix
p885
Vminivansareevil
p886
sVmadamthefifth
p887
Vaggietimber
p888
sVMeSoCornyyy
p889
Vcaladriel
p890
sVChewsti
p891
Vftothec
p892
sVdbrownbear
p893
Vharrisonfire
p894
sViceschade
p895
Vhrnmyd
p896
sVjmelol
p897
Vlyricist
p898
sVmrefvem
p899
VSallyMacLennane
p900
sVlove2fap
p901
Vniteflirtgirl
p902
sVvpal
p903
Vfoki
p904
sVemajoranna
p905
Vdalidala
p906
sVLolalawless1
p907
Vsolanumn
p908
sVFizzMaster0
p909
Vhomeless_wonders
p910
sVthelwynn
p911
Vmooseindc
p912
sVThe_Axelrod
p913
Vkornywayz
p914
sVdrfeelgood60
p915
Varsenismzero
p916
sVEmploymentFail
p917
Vsalbito
p918
sVgrahamsimmons
p919
Vflawlessnoob
p920
sViamcosmos
p921
Vwrongwaykid
p922
sVzer0hz
p923
Vpastafariantwit
p924
sVmcavopol
p925
Vperezdev
p926
sVzephris
p927
Vdihydrogen_monoxide
p928
sVRuleroftheblind
p929
Vclearmoon247
p930
sVt__mhjr
p931
Vczhunc
p932
sVredditormom2011
p933
VMisterGrizzly
p934
s.